(dp0
S'56'
p1
(lp2
F0.055579746306514397
aF0.055579746306514397
aF0.05540795250324512
aF0.05540795250324512
aF0.055064895901762424
aF0.055064895901762424
aF0.054551636870889424
aF0.054551636870889424
aF0.05386976186571449
aF0.05386976186571449
aF0.053021378524010766
aF0.053021378524010766
aF0.0520091091517414
aF0.0520091091517414
aF0.05083608261779848
aF0.05083608261779848
aF0.04950592468304758
aF0.04950592468304758
aF0.04802274679360026
aF0.04802274679360026
aF0.046391133373001894
aF0.046391133373001894
aF0.04461612765269228
aF0.04461612765269228
aF0.04270321608466709
aF0.04270321608466709
aF0.04065831138474452
aF0.04065831138474452
aF0.03848773425924766
aF0.03848773425924766
aF0.03619819387231519
aF0.03619819387231519
aF0.03379676711561176
aF0.03379676711561176
aF0.031290876747310445
aF0.031290876747310445
aF0.02868826847382274
aF0.02868826847382274
aF0.025996987058391954
aF0.025996987058391954
aF0.023225351562565315
aF0.023225351562565315
aF0.02038192988240257
aF0.02038192988240257
aF0.017475512911400946
aF0.017475512911400946
aF0.01451508927802147
aF0.01451508927802147
aF0.011509824340383381
aF0.011509824340383381
aF0.008469063163307887
aF0.008469063163307887
aF0.005402522246015337
aF0.005402522246015337
aF0.002323855375773215
aF0.002323855375773215
asS'54'
p3
(lp4
F0.057617536707147025
aF0.057617536707147025
aF0.05742613705411211
aF0.05742613705411211
aF0.0570439735587946
aF0.0570439735587946
aF0.056472315730625965
aF0.056472315730625965
aF0.055713062560589985
aF0.055713062560589985
aF0.054768736213057986
aF0.054768736213057986
aF0.05364247364755361
aF0.05364247364755361
aF0.05233801619829875
aF0.05233801619829875
aF0.05085969714618815
aF0.05085969714618815
aF0.049212427324528886
aF0.049212427324528886
aF0.04740167880644499
aF0.04740167880644499
aF0.045433466728276715
aF0.045433466728276715
aF0.04331432930959701
aF0.04331432930959701
aF0.041051306136644976
aF0.041051306136644976
aF0.03865191478210252
aF0.03865191478210252
aF0.036124125840383554
aF0.036124125840383554
aF0.03347633646437265
aF0.03347633646437265
aF0.030717342497870677
aF0.030717342497870677
aF0.02785630931059587
aF0.02785630931059587
aF0.024902741467208774
aF0.024902741467208774
aF0.021866451422853084
aF0.021866451422853084
aF0.018757527621469375
aF0.018757527621469375
aF0.015586303035924131
aF0.015586303035924131
aF0.012363328128847644
aF0.012363328128847644
aF0.009099369455509395
aF0.009099369455509395
aF0.005805611015239984
aF0.005805611015239984
aF0.002497481835761585
aF0.002497481835761585
asS'28'
p5
(lp6
F0.1100470130164752
aF0.1100470130164752
aF0.10871119225829413
aF0.10871119225829413
aF0.10605576592284642
aF0.10605576592284642
aF0.10211296757806076
aF0.10211296757806076
aF0.09693065799792991
aF0.09693065799792991
aF0.09057174439303284
aF0.09057174439303284
aF0.08311341722890121
aF0.08311341722890121
aF0.07464621423456878
aF0.07464621423456878
aF0.06527292396699959
aF0.06527292396699959
aF0.05510734567571675
aF0.05510734567571675
aF0.04427293475900423
aF0.04427293475900423
aF0.03290142778230438
aF0.03290142778230438
aF0.02113211259277126
aF0.02113211259277126
aF0.009124282593094517
aF0.009124282593094517
asS'48'
p7
(lp8
F0.06473769681268392
aF0.06473769681268392
aF0.06446616443595009
aF0.06446616443595009
aF0.06392423858464819
aF0.06392423858464819
aF0.06311419228625402
aF0.06311419228625402
aF0.062039423159892665
aF0.062039423159892665
aF0.06070443916589388
aF0.06070443916589388
aF0.059114839698395635
aF0.059114839698395635
aF0.057277292100403214
aF0.057277292100403214
aF0.055199503699984165
aF0.055199503699984165
aF0.05289018948519367
aF0.05289018948519367
aF0.05035903555385447
aF0.05035903555385447
aF0.04761665849249047
aF0.04761665849249047
aF0.04467456085669428
aF0.04467456085669428
aF0.04154508294346475
aF0.04154508294346475
aF0.03824135106583071
aF0.03824135106583071
aF0.034777222564770435
aF0.034777222564770435
aF0.03116722783279809
aF0.03116722783279809
aF0.027426509708356948
aF0.027426509708356948
aF0.02357076083932438
aF0.02357076083932438
aF0.019616160457355526
aF0.019616160457355526
aF0.015579315722943849
aF0.015579315722943849
aF0.011477234579234538
aF0.011477234579234538
aF0.007327553901276262
aF0.007327553901276262
aF0.003153346052305838
aF0.003153346052305838
asS'29'
p9
(lp10
F0.10647938171831424
aF0.10587615509732094
aF0.10587615509732094
aF0.10407331007772937
aF0.10407331007772937
aF0.10109127375991496
aF0.10109127375991496
aF0.0969638340944086
aF0.0969638340944086
aF0.09173775713925876
aF0.09173775713925876
aF0.08547225736617253
aF0.08547225736617253
aF0.07823832713576379
aF0.07823832713576379
aF0.07011793325505128
aF0.07011793325505128
aF0.061203090657079136
aF0.061203090657079136
aF0.05159482690249792
aF0.05159482690249792
aF0.041402062518682836
aF0.041402062518682836
aF0.03074049220209362
aF0.03074049220209362
aF0.019732085056122704
aF0.019732085056122704
aF0.008516903878746408
aF0.008516903878746408
asS'60'
p11
(lp12
F0.051907877631220636
aF0.051907877631220636
aF0.05176794317491019
aF0.05176794317491019
aF0.051488451500980935
aF0.051488451500980935
aF0.05107015606985563
aF0.05107015606985563
aF0.050514184532509374
aF0.050514184532509374
aF0.04982203569055018
aF0.04982203569055018
aF0.048995575455756835
aF0.048995575455756835
aF0.04803703181997118
aF0.04803703181997118
aF0.0469489888489122
aF0.0469489888489122
aF0.045734379716114486
aF0.045734379716114486
aF0.04439647879578711
aF0.04439647879578711
aF0.04293889283593564
aF0.04293889283593564
aF0.041365551235584753
aF0.041365551235584753
aF0.0396806954523808
aF0.0396806954523808
aF0.037888867569243444
aF0.037888867569243444
aF0.0359948980510845
aF0.0359948980510845
aF0.03400389272494642
aF0.03400389272494642
aF0.03192121901929633
aF0.03192121901929633
aF0.029752491500788944
aF0.029752491500788944
aF0.02750355674992479
aF0.02750355674992479
aF0.025180477621521247
aF0.025180477621521247
aF0.02278951694399782
aF0.02278951694399782
aF0.020337120729457286
aF0.020337120729457286
aF0.01782990101420772
aF0.01782990101420772
aF0.015274618596784799
aF0.015274618596784799
aF0.01267816647681596
aF0.01267816647681596
aF0.010047557182287984
aF0.010047557182287984
aF0.007389931163345455
aF0.007389931163345455
aF0.004712729926953568
aF0.004712729926953568
aF0.002026811968873758
aF0.002026811968873758
asS'61'
p13
(lp14
F0.051081119440786214
aF0.051014487038697265
aF0.051014487038697265
aF0.05081476366881834
aF0.05081476366881834
aF0.0504824703867974
aF0.0504824703867974
aF0.05001847410817825
aF0.05001847410817825
aF0.04942398534673559
aF0.04942398534673559
aF0.04870055505641153
aF0.04870055505641153
aF0.047850070585095605
aF0.047850070585095605
aF0.04687475075080907
aF0.04687475075080907
aF0.04577714005314596
aF0.04577714005314596
aF0.04456010203508349
aF0.04456010203508349
aF0.043226811812496095
aF0.043226811812496095
aF0.041780747790888494
aF0.041780747790888494
aF0.04022568259099825
aF0.04022568259099825
aF0.03856567320700817
aF0.03856567320700817
aF0.036805050423154816
aF0.036805050423154816
aF0.03494840751653335
aF0.03494840751653335
aF0.03300058827590741
aF0.03300058827590741
aF0.030966674368397396
aF0.030966674368397396
aF0.0288519720881834
aF0.0288519720881834
aF0.02666199852415089
aF0.02666199852415089
aF0.024402467187544203
aF0.024402467187544203
aF0.022079273148319045
aF0.022079273148319045
aF0.01969847774610118
aF0.01969847774610118
aF0.017266292987613743
aF0.017266292987613743
aF0.014789065884937913
aF0.014789065884937913
aF0.012273263507812104
aF0.012273263507812104
aF0.009725461830356132
aF0.009725461830356132
aF0.007152354991749089
aF0.007152354991749089
aF0.004560924006012417
aF0.004560924006012417
aF0.001961453361670282
aF0.001961453361670282
asS'62'
p15
(lp16
F0.05024800037525628
aF0.05024800037525628
aF0.05012106956904329
aF0.05012106956904329
aF0.049867528594952394
aF0.049867528594952394
aF0.04948801791969929
aF0.04948801791969929
aF0.048983496220517835
aF0.048983496220517835
aF0.048355237963477675
aF0.048355237963477675
aF0.047604830184101235
aF0.047604830184101235
aF0.04673416847841552
aF0.04673416847841552
aF0.04574545221457018
aF0.04574545221457018
aF0.04464117897712441
aF0.04464117897712441
aF0.04342413825804742
aF0.04342413825804742
aF0.0420974044103851
aF0.0420974044103851
aF0.04066432888241744
aF0.04066432888241744
aF0.03912853175196308
aF0.03912853175196308
aF0.03749389258228003
aF0.03749389258228003
aF0.03576454062276814
aF0.03576454062276814
aF0.033944844379410546
aF0.033944844379410546
aF0.032039400581624675
aF0.032039400581624675
aF0.03005302257398987
aF0.03005302257398987
aF0.027990728163314636
aF0.027990728163314636
aF0.025857726954024697
aF0.025857726954024697
aF0.023659407208682794
aF0.023659407208682794
aF0.021401322277669967
aF0.021401322277669967
aF0.0190891766585732
aF0.0190891766585732
aF0.016728811790177316
aF0.016728811790177316
aF0.014326191823806516
aF0.014326191823806516
aF0.011887390117010501
aF0.011887390117010501
aF0.009418579428420388
aF0.009418579428420388
aF0.00692604190183096
aF0.00692604190183096
aF0.004416333456930904
aF0.004416333456930904
aF0.00189920567951369
aF0.00189920567951369
asS'63'
p17
(lp18
F0.04947236662393102
aF0.049411833039918175
aF0.049411833039918175
aF0.04923038042374756
aF0.04923038042374756
aF0.04892845282051199
aF0.04892845282051199
aF0.04850678909788385
aF0.04850678909788385
aF0.04796642113799513
aF0.04796642113799513
aF0.047308671312268916
aF0.047308671312268916
aF0.0465351492453837
aF0.0465351492453837
aF0.04564774787629261
aF0.04564774787629261
aF0.044648638825941396
aF0.044648638825941396
aF0.04354026708302759
aF0.04354026708302759
aF0.04232534502081582
aF0.04232534502081582
aF0.0410068457596664
aF0.0410068457596664
aF0.039587995891544096
aF0.039587995891544096
aF0.038072267584349555
aF0.038072267584349555
aF0.03646337008545729
aF0.03646337008545729
aF0.034765240645355876
aF0.034765240645355876
aF0.03298203488377934
aF0.03298203488377934
aF0.03111811662221982
aF0.03111811662221982
aF0.029178047208280527
aF0.029178047208280527
aF0.027166574359097934
aF0.027166574359097934
aF0.025088620553344987
aF0.025088620553344987
aF0.022949271004889932
aF0.022949271004889932
aF0.02075376125803909
aF0.02075376125803909
aF0.01850746446016127
aF0.01850746446016127
aF0.01621587841033834
aF0.01621587841033834
aF0.01388461261611561
aF0.01388461261611561
aF0.011519376076880042
aF0.011519376076880042
aF0.009125968676326656
aF0.009125968676326656
aF0.006710291765960136
aF0.006710291765960136
aF0.004278508346863761
aF0.004278508346863761
aF0.001839874595577084
aF0.001839874595577084
asS'64'
p19
(lp20
F0.04869095700913972
aF0.04869095700913972
aF0.04857546744150343
aF0.04857546744150343
aF0.048344762234802954
aF0.048344762234802954
aF0.04799938859645831
aF0.04799938859645831
aF0.04754016571483031
aF0.04754016571483031
aF0.04696818281621002
aF0.04696818281621002
aF0.046284796581314416
aF0.046284796581314416
aF0.04549162792741814
aF0.04549162792741814
aF0.044590558163756566
aF0.044590558163756566
aF0.04358372452932345
aF0.04358372452932345
aF0.04247351512365359
aF0.04247351512365359
aF0.04126256324262353
aF0.04126256324262353
aF0.03995374113272034
aF0.03995374113272034
aF0.038550153178615626
aF0.038550153178615626
aF0.03705512854024005
aF0.03705512854024005
aF0.035472213256882386
aF0.035472213256882386
aF0.033805161837141606
aF0.033805161837141606
aF0.03205792835485155
aF0.03205792835485155
aF0.030234657072402478
aF0.030234657072402478
aF0.028339672614259483
aF0.028339672614259483
aF0.02637746971505466
aF0.02637746971505466
aF0.024352702568710874
aF0.024352702568710874
aF0.022270173808383253
aF0.022270173808383253
aF0.02013482315353021
aF0.02013482315353021
aF0.017951715775697343
aF0.017951715775697343
aF0.015726030476024718
aF0.015726030476024718
aF0.013463047896718643
aF0.013463047896718643
aF0.011168139460131128
aF0.011168139460131128
aF0.008846759826363947
aF0.008846759826363947
aF0.006504457968978362
aF0.006504457968978362
aF0.004147033260562467
aF0.004147033260562467
aF0.001783280721696432
aF0.001783280721696432
asS'49'
p21
(lp22
F0.0634632814047906
aF0.06333550929649175
aF0.06333550929649175
aF0.0629527074651957
aF0.0629527074651957
aF0.062316417320057264
aF0.062316417320057264
aF0.06142920097919294
aF0.06142920097919294
aF0.06029463095315202
aF0.06029463095315202
aF0.05891727576002727
aF0.05891727576002727
aF0.05730268153018748
aF0.05730268153018748
aF0.05545734967480359
aF0.05545734967480359
aF0.05338871070825897
aF0.05338871070825897
aF0.05110509433014459
aF0.05110509433014459
aF0.04861569588782824
aF0.04861569588782824
aF0.04593053935559585
aF0.04593053935559585
aF0.043060436981259595
aF0.043060436981259595
aF0.04001694576637302
aF0.04001694576637302
aF0.03681232096300069
aF0.03681232096300069
aF0.03345946679162217
aF0.03345946679162217
aF0.029971884620583825
aF0.029971884620583825
aF0.026363618927066016
aF0.026363618927066016
aF0.022649201587446675
aF0.022649201587446675
aF0.018843595853089458
aF0.018843595853089458
aF0.01496214493562465
aF0.01496214493562465
aF0.01102055103159358
aF0.01102055103159358
aF0.007035099590086451
aF0.007035099590086451
aF0.003027278988922905
aF0.003027278988922905
asS'52'
p23
(lp24
F0.05981036574529186
aF0.05981036574529186
aF0.05959626017124816
aF0.05959626017124816
aF0.05916881546604297
aF0.05916881546604297
aF0.05852956177181387
aF0.05852956177181387
aF0.057680787452526826
aF0.057680787452526826
aF0.0566255309023686
aF0.0566255309023686
aF0.05536756966930265
aF0.05536756966930265
aF0.05391140693275726
aF0.05391140693275726
aF0.05226225538390699
aF0.05226225538390699
aF0.05042601856634238
aF0.05042601856634238
aF0.0484092697440749
aF0.0484092697440749
aF0.04621922837278479
aF0.04621922837278479
aF0.043863734259000406
aF0.043863734259000406
aF0.04135121950056027
aF0.04135121950056027
aF0.03869067831042398
aF0.03869067831042398
aF0.03589163483509723
aF0.03589163483509723
aF0.0329641090897188
aF0.0329641090897188
aF0.029918581147143946
aF0.029918581147143946
aF0.026765953746504013
aF0.026765953746504013
aF0.02351751355398446
aF0.02351751355398446
aF0.020184891507980793
aF0.020184891507980793
aF0.016780023396300733
aF0.016780023396300733
aF0.01331511498234096
aF0.01331511498234096
aF0.009802634579462751
aF0.009802634579462751
aF0.006255523962973276
aF0.006255523962973276
aF0.002691316950047111
aF0.002691316950047111
asS'53'
p25
(lp26
F0.058718794151164364
aF0.058617586232720266
aF0.058617586232720266
aF0.058314311362256004
aF0.058314311362256004
aF0.0578100149917132
aF0.0578100149917132
aF0.057106435536267194
aF0.057106435536267194
aF0.05620599838173971
aF0.05620599838173971
aF0.0551118075239336
aF0.0551118075239336
aF0.05382763486873103
aF0.05382763486873103
aF0.05235790722987272
aF0.05235790722987272
aF0.05070769106929272
aF0.05070769106929272
aF0.04888267503269914
aF0.04888267503269914
aF0.046889150340750314
aF0.046889150340750314
aF0.04473398910367281
aF0.04473398910367281
aF0.042424620634520016
aF0.042424620634520016
aF0.039969005843540385
aF0.039969005843540385
aF0.037375609803482916
aF0.037375609803482916
aF0.03465337258353424
aF0.03465337258353424
aF0.031811678459019326
aF0.031811678459019326
aF0.028860323617823737
aF0.028860323617823737
aF0.025809482510757518
aF0.025809482510757518
aF0.022669673057070207
aF0.022669673057070207
aF0.019451721107636894
aF0.019451721107636894
aF0.016166725256687463
aF0.016166725256687463
aF0.012826026144240379
aF0.012826026144240379
aF0.009441202284940345
aF0.009441202284940345
aF0.006024276226948673
aF0.006024276226948673
aF0.002591683720567031
aF0.002591683720567031
asS'24'
p27
(lp28
F0.12793819534675216
aF0.12793819534675216
aF0.1258374563468283
aF0.1258374563468283
aF0.12167047292780339
aF0.12167047292780339
aF0.1155056680537256
aF0.1155056680537256
aF0.10744427011596563
aF0.10744427011596563
aF0.09761865210411388
aF0.09761865210411388
aF0.08619016153195327
aF0.08619016153195327
aF0.0733464814110803
aF0.0733464814110803
aF0.05929858491543678
aF0.05929858491543678
aF0.04427743881741981
aF0.04427743881741981
aF0.028531388628933663
aF0.028531388628933663
aF0.012341229799987198
aF0.012341229799987198
asS'25'
p29
(lp30
F0.12317605372671545
aF0.12224244299031004
aF0.12224244299031004
aF0.11945576353578477
aF0.11945576353578477
aF0.11485825914571164
aF0.11485825914571164
aF0.10851962447426365
aF0.10851962447426365
aF0.10053594906705064
aF0.10053594906705064
aF0.09102826198296365
aF0.09102826198296365
aF0.08014070033500102
aF0.08014070033500102
aF0.06803833381235691
aF0.06803833381235691
aF0.054904695975835194
aF0.054904695975835194
aF0.04093915670130631
aF0.04093915670130631
aF0.026354986615032137
aF0.026354986615032137
aF0.011393798501026287
aF0.011393798501026287
asS'26'
p31
(lp32
F0.11832141527926228
aF0.11832141527926228
aF0.11666044348529658
aF0.11666044348529658
aF0.11336181654631966
aF0.11336181654631966
aF0.10847184052857659
aF0.10847184052857659
aF0.10205916109442542
aF0.10205916109442542
aF0.09421380035591415
aF0.09421380035591415
aF0.08504589431348523
aF0.08504589431348523
aF0.07468414976565975
aF0.07468414976565975
aF0.06327404632957484
aF0.06327404632957484
aF0.05097582529714781
aF0.05097582529714781
aF0.037962383294362766
aF0.037962383294362766
aF0.024417851092631906
aF0.024417851092631906
aF0.010551372617343006
aF0.010551372617343006
asS'27'
p33
(lp34
F0.114220867378957
aF0.11347634610896515
aF0.11347634610896515
aF0.11125248835684519
aF0.11125248835684519
aF0.10757828578853319
aF0.10757828578853319
aF0.1025016378177458
aF0.1025016378177458
aF0.0960887273700285
aF0.0960887273700285
aF0.08842315854375694
aF0.08842315854375694
aF0.07960486777305777
aF0.07960486777305777
aF0.0697488237662456
aF0.0697488237662456
aF0.058983536859833596
aF0.058983536859833596
aF0.04744941252061506
aF0.04744941252061506
aF0.03529705375741971
aF0.03529705375741971
aF0.022686231596180623
aF0.022686231596180623
aF0.00979899605129436
aF0.00979899605129436
asS'20'
p35
(lp36
F0.15275338713072584
aF0.15275338713072584
aF0.14917298647260374
aF0.14917298647260374
aF0.14209610931838204
aF0.14209610931838204
aF0.13168863844917664
aF0.13168863844917664
aF0.11819453196151841
aF0.11819453196151841
aF0.10193011981724044
aF0.10193011981724044
aF0.08327674157670475
aF0.08327674157670475
aF0.06267204833410907
aF0.06267204833410907
aF0.04060142980038694
aF0.04060142980038694
aF0.017614007139152118
aF0.017614007139152118
asS'21'
p37
(lp38
F0.14608113364969041
aF0.14452440398997005
aF0.14452440398997005
aF0.13988739479107315
aF0.13988739479107315
aF0.13226893863333747
aF0.13226893863333747
aF0.12183141605372853
aF0.12183141605372853
aF0.10879729916714838
aF0.10879729916714838
aF0.09344442345603386
aF0.09344442345603386
aF0.0761001136283793
aF0.0761001136283793
aF0.057134425426857205
aF0.057134425426857205
aF0.036953789770852494
aF0.036953789770852494
aF0.016017228257774335
aF0.016017228257774335
asS'22'
p39
(lp40
F0.13925187285563198
aF0.13925187285563198
aF0.13654149834601517
aF0.13654149834601517
aF0.13117350478706238
aF0.13117350478706238
aF0.12325237681051242
aF0.12325237681051242
aF0.11293229608053922
aF0.11293229608053922
aF0.10041414444288096
aF0.10041414444288096
aF0.08594160621706773
aF0.08594160621706773
aF0.06979646842452049
aF0.06979646842452049
aF0.052293335152683286
aF0.052293335152683286
aF0.03377490158481415
aF0.03377490158481415
aF0.0146279952982722
aF0.0146279952982722
asS'23'
p41
(lp42
F0.13365457218610619
aF0.1324620394046966
aF0.1324620394046966
aF0.12890572218808216
aF0.12890572218808216
aF0.12304908430672953
aF0.12304908430672953
aF0.11499664022241136
aF0.11499664022241136
aF0.10489209146454141
aF0.10489209146454141
aF0.09291576606003514
aF0.09291576606003514
aF0.07928141177671895
aF0.07928141177671895
aF0.06423242140852585
aF0.06423242140852585
aF0.04803767173108467
aF0.04803767173108467
aF0.030988005856979445
aF0.030988005856979445
aF0.013411859487141771
aF0.013411859487141771
asS'46'
p43
(lp44
F0.06751868584903646
aF0.06751868584903646
aF0.06721061360067818
aF0.06721061360067818
aF0.06659587476845488
aF0.06659587476845488
aF0.06567727426778121
aF0.06567727426778121
aF0.06445900346713906
aF0.06445900346713906
aF0.06294662106439451
aF0.06294662106439451
aF0.06114702772465048
aF0.06114702772465048
aF0.05906843459554632
aF0.05906843459554632
aF0.05672032584399123
aF0.05672032584399123
aF0.054113415385856754
aF0.054113415385856754
aF0.05125959800714302
aF0.05125959800714302
aF0.0481718951017122
aF0.0481718951017122
aF0.04486439527731813
aF0.04486439527731813
aF0.04135219010967873
aF0.04135219010967873
aF0.03765130535738607
aF0.03765130535738607
aF0.03377862799910689
aF0.03377862799910689
aF0.029751829552202756
aF0.029751829552202756
aF0.02558928639713001
aF0.02558928639713001
aF0.0213099987541365
aF0.0213099987541365
aF0.01693351400783624
aF0.01693351400783624
aF0.012479883770988683
aF0.012479883770988683
aF0.007969898229724623
aF0.007969898229724623
aF0.003430300868107048
aF0.003430300868107048
asS'47'
p45
(lp46
F0.06613512962365548
aF0.06599053358881048
aF0.06599053358881048
aF0.06555737776654974
aF0.06555737776654974
aF0.06483755623894573
aF0.06483755623894573
aF0.06383421660571703
aF0.06383421660571703
aF0.06255174622092166
aF0.06255174622092166
aF0.06099575300873965
aF0.06099575300873965
aF0.05917304094233888
aF0.05917304094233888
aF0.05709158029323154
aF0.05709158029323154
aF0.05476047278153023
aF0.05476047278153023
aF0.05218991178005714
aF0.05218991178005714
aF0.04939113774736117
aF0.04939113774736117
aF0.04637638908650591
aF0.04637638908650591
aF0.04315884864847954
aF0.04315884864847954
aF0.039752586122531006
aF0.039752586122531006
aF0.03617249658417495
aF0.03617249658417495
aF0.032434235515184755
aF0.032434235515184755
aF0.028554150700643387
aF0.028554150700643387
aF0.02454921165965882
aF0.02454921165965882
aF0.020436938147668428
aF0.020436938147668428
aF0.016235333146433058
aF0.016235333146433058
aF0.01196284846431232
aF0.01196284846431232
aF0.007638616295848833
aF0.007638616295848833
aF0.003287453842528014
aF0.003287453842528014
asS'44'
p47
(lp48
F0.07054915778935407
aF0.07054915778935407
aF0.07019768547355822
aF0.07019768547355822
aF0.06949649186157258
aF0.06949649186157258
aF0.06844907026936665
aF0.06844907026936665
aF0.06706063890629366
aF0.06706063890629366
aF0.06533811487918144
aF0.06533811487918144
aF0.06329007973320386
aF0.06329007973320386
aF0.06092673670156197
aF0.06092673670156197
aF0.05825985987759549
aF0.05825985987759549
aF0.05530273556372805
aF0.05530273556372805
aF0.05207009609170446
aF0.05207009609170446
aF0.048578046448352036
aF0.048578046448352036
aF0.04484398408197003
aF0.04484398408197003
aF0.04088651231034622
aF0.04088651231034622
aF0.03672534781380887
aF0.03672534781380887
aF0.03238122281206982
aF0.03238122281206982
aF0.02787578282128101
aF0.02787578282128101
aF0.02323148190201921
aF0.02323148190201921
aF0.01847148173681475
aF0.01847148173681475
aF0.013619586755579985
aF0.013619586755579985
aF0.008700481367524843
aF0.008700481367524843
aF0.003745404803112777
aF0.003745404803112777
asS'45'
p49
(lp50
F0.06904182482923202
aF0.06887731697766132
aF0.06887731697766132
aF0.06838457737866968
aF0.06838457737866968
aF0.06756595416360754
aF0.06756595416360754
aF0.06642534844984253
aF0.06642534844984253
aF0.06496819575072343
aF0.06496819575072343
aF0.06320144007381993
aF0.06320144007381993
aF0.06113350083106652
aF0.06113350083106652
aF0.05877423271884174
aF0.05877423271884174
aF0.056134878759786476
aF0.056134878759786476
aF0.05322801673126895
aF0.05322801673126895
aF0.05006749923795203
aF0.05006749923795203
aF0.046668387718373366
aF0.046668387718373366
aF0.04304688070916497
aF0.04304688070916497
aF0.03922023672930245
aF0.03922023672930245
aF0.03520669220160902
aF0.03520669220160902
aF0.031025374934515466
aF0.031025374934515466
aF0.026696213967577664
aF0.026696213967577664
aF0.022239847550578732
aF0.022239847550578732
aF0.01767753525793759
aF0.01767753525793759
aF0.013031104991582785
aF0.013031104991582785
aF0.00832318929621824
aF0.00832318929621824
aF0.003582663155283558
aF0.003582663155283558
asS'42'
p51
(lp52
F0.07386423423217288
aF0.07386423423217288
aF0.07346081345346753
aF0.07346081345346753
aF0.0726561752438041
aF0.0726561752438041
aF0.07145471426517098
aF0.07145471426517098
aF0.06986299249259416
aF0.06986299249259416
aF0.06788970337652195
aF0.06788970337652195
aF0.06554562436490897
aF0.06554562436490897
aF0.06284355804500258
aF0.06284355804500258
aF0.059798262227586656
aF0.059798262227586656
aF0.05642636935801838
aF0.05642636935801838
aF0.05274629569917407
aF0.05274629569917407
aF0.048778140792803244
aF0.048778140792803244
aF0.044543577771965874
aF0.044543577771965874
aF0.04006573518069226
aF0.04006573518069226
aF0.03536907109759211
aF0.03536907109759211
aF0.030479240699603467
aF0.030479240699603467
aF0.025422959526113047
aF0.025422959526113047
aF0.020227869569052644
aF0.020227869569052644
aF0.014922443697357493
aF0.014922443697357493
aF0.009536220301748503
aF0.009536220301748503
aF0.004105998604649084
aF0.004105998604649084
asS'43'
p53
(lp54
F0.07221575169379899
aF0.07202750197142198
aF0.07202750197142198
aF0.07146373425251414
aF0.07146373425251414
aF0.07052738776508503
aF0.07052738776508503
aF0.06922334419365668
aF0.06922334419365668
aF0.06755840222936517
aF0.06755840222936517
aF0.0655412421263228
aF0.0655412421263228
aF0.06318238044939611
aF0.06318238044939611
aF0.06049411524999129
aF0.06049411524999129
aF0.057490461956910516
aF0.057490461956910516
aF0.05418708031888179
aF0.05418708031888179
aF0.05060119278439015
aF0.05060119278439015
aF0.04675149475434658
aF0.04675149475434658
aF0.04265805719798208
aF0.04265805719798208
aF0.03834222219413266
aF0.03834222219413266
aF0.03382649208686029
aF0.03382649208686029
aF0.029134413261498494
aF0.029134413261498494
aF0.024290456613838815
aF0.024290456613838815
aF0.0193199014236839
aF0.0193199014236839
aF0.014248756431576486
aF0.014248756431576486
aF0.009103996637401404
aF0.009103996637401404
aF0.003919490253844127
aF0.003919490253844127
asS'40'
p55
(lp56
F0.0775059479784248
aF0.0775059479784248
aF0.07703981816424796
aF0.07703981816424796
aF0.07611036190062624
aF0.07611036190062624
aF0.07472316905796826
aF0.07472316905796826
aF0.07288658239580406
aF0.07288658239580406
aF0.07061164739128678
aF0.07061164739128678
aF0.0679120458152339
aF0.0679120458152339
aF0.06480401345660104
aF0.06480401345660104
aF0.06130624249292894
aF0.06130624249292894
aF0.05743976909939155
aF0.05743976909939155
aF0.05322784698393682
aF0.05322784698393682
aF0.04869580763507223
aF0.04869580763507223
aF0.04387090818567327
aF0.04387090818567327
aF0.038782167974472016
aF0.038782167974472016
aF0.033460195282547844
aF0.033460195282547844
aF0.0279370069800234
aF0.0279370069800234
aF0.02224584919416696
aF0.02224584919416696
aF0.01642105838190789
aF0.01642105838190789
aF0.010498284531152813
aF0.010498284531152813
aF0.004521277098533191
aF0.004521277098533191
asS'41'
p57
(lp58
F0.07569553564729838
aF0.07547874709271582
aF0.07547874709271582
aF0.07482962317622155
aF0.07482962317622155
aF0.07375188202722346
aF0.07375188202722346
aF0.07225169686102308
aF0.07225169686102308
aF0.07033766062081749
aF0.07033766062081749
aF0.06802073676087676
aF0.06802073676087676
aF0.06531419645352741
aF0.06531419645352741
aF0.06223354258096631
aF0.06223354258096631
aF0.05879642094987195
aF0.05879642094987195
aF0.05502251924257874
aF0.05502251924257874
aF0.05093345429461749
aF0.05093345429461749
aF0.04655264836901434
aF0.04655264836901434
aF0.04190519519590969
aF0.04190519519590969
aF0.03701771670350799
aF0.03701771670350799
aF0.03191821173169928
aF0.03191821173169928
aF0.026635899207110444
aF0.026635899207110444
aF0.021201063368779555
aF0.021201063368779555
aF0.01564493840781859
aF0.01564493840781859
aF0.009999938773905944
aF0.009999938773905944
aF0.004306140358164887
aF0.004306140358164887
asS'3'
p59
(lp60
F0.8888888888888888
aF0.5555555555555556
aF0.5555555555555556
asS'2'
p61
(lp62
F1.0
aF1.0
asS'5'
p63
(lp64
F0.5688888888888889
aF0.47862867049936647
aF0.47862867049936647
aF0.23692688505618908
aF0.23692688505618908
asS'4'
p65
(lp66
F0.6521451548625461
aF0.6521451548625461
aF0.34785484513745385
aF0.34785484513745385
asS'7'
p67
(lp68
F0.4179591836734694
aF0.3818300505051189
aF0.3818300505051189
aF0.27970539148927664
aF0.27970539148927664
aF0.1294849661688697
aF0.1294849661688697
asS'6'
p69
(lp70
F0.3607615730481386
aF0.3607615730481386
aF0.46791393457269104
aF0.46791393457269104
aF0.17132449237917036
aF0.17132449237917036
asS'9'
p71
(lp72
F0.3302393550012598
aF0.1806481606948574
aF0.1806481606948574
aF0.08127438836157441
aF0.08127438836157441
aF0.31234707704000286
aF0.31234707704000286
aF0.26061069640293544
aF0.26061069640293544
asS'8'
p73
(lp74
F0.362683783378362
aF0.362683783378362
aF0.31370664587788727
aF0.31370664587788727
aF0.22238103445337448
aF0.22238103445337448
aF0.10122853629037626
aF0.10122853629037626
asS'51'
p75
(lp76
F0.06099892484120588
aF0.060885464844856345
aF0.060885464844856345
aF0.06054550693473779
aF0.06054550693473779
aF0.05998031577750325
aF0.05998031577750325
aF0.059191993922961546
aF0.059191993922961546
aF0.05818347398259214
aF0.05818347398259214
aF0.056958507720258664
aF0.056958507720258664
aF0.05552165209573869
aF0.05552165209573869
aF0.05387825231304556
aF0.05387825231304556
aF0.052034421936697085
aF0.052034421936697085
aF0.04999702015005741
aF0.04999702015005741
aF0.047773626240623104
aF0.047773626240623104
aF0.04537251140765007
aF0.04537251140765007
aF0.042802607997880084
aF0.042802607997880084
aF0.04007347628549645
aF0.04007347628549645
aF0.03719526892326029
aF0.03719526892326029
aF0.034178693204188336
aF0.034178693204188336
aF0.03103497129016001
aF0.03103497129016001
aF0.027775798594162477
aF0.027775798594162477
aF0.024413300573781434
aF0.024413300573781434
aF0.02095998840170321
aF0.02095998840170321
aF0.017428714723401052
aF0.017428714723401052
aF0.013832634006477822
aF0.013832634006477822
aF0.010185191297821729
aF0.010185191297821729
aF0.0065003377832526
aF0.0065003377832526
aF0.002796807171089895
aF0.002796807171089895
asS'13'
p77
(lp78
F0.2325515532308739
aF0.22628318026289723
aF0.22628318026289723
aF0.2078160475368885
aF0.2078160475368885
aF0.17814598076194574
aF0.17814598076194574
aF0.13887351021978725
aF0.13887351021978725
aF0.09212149983772845
aF0.09212149983772845
aF0.04048400476531588
aF0.04048400476531588
asS'12'
p79
(lp80
F0.24914704581340277
aF0.24914704581340277
aF0.2334925365383548
aF0.2334925365383548
aF0.20316742672306592
aF0.20316742672306592
aF0.16007832854334622
aF0.16007832854334622
aF0.10693932599531843
aF0.10693932599531843
aF0.04717533638651183
aF0.04717533638651183
asS'59'
p81
(lp82
F0.05279801262199042
aF0.05272443385912793
aF0.05272443385912793
aF0.05250390264782874
aF0.05250390264782874
aF0.052137033648375394
aF0.052137033648375394
aF0.05162484939089148
aF0.05162484939089148
aF0.050968777425393914
aF0.050968777425393914
aF0.0501706463429969
aF0.0501706463429969
aF0.049232680679361984
aF0.049232680679361984
aF0.04815749471460644
aF0.04815749471460644
aF0.046948085186962016
aF0.046948085186962016
aF0.04560782294050977
aF0.04560782294050977
aF0.04414044353029738
aF0.04414044353029738
aF0.042550036811067636
aF0.042550036811067636
aF0.040841035538686704
aF0.040841035538686704
aF0.03901820301616001
aF0.03901820301616001
aF0.037086619818870924
aF0.037086619818870924
aF0.03505166963640011
aF0.03505166963640011
aF0.032919024271045275
aF0.032919024271045275
aF0.030694627836111682
aF0.030694627836111682
aF0.028384680200534796
aF0.028384680200534796
aF0.0259956197312985
aF0.0259956197312985
aF0.023534105393713364
aF0.023534105393713364
aF0.021006998288437186
aF0.021006998288437186
aF0.01842134275361003
aF0.01842134275361003
aF0.015784347313081468
aF0.015784347313081468
aF0.01310336630634519
aF0.01310336630634519
aF0.010385885500995862
aF0.010385885500995862
aF0.007639529453487575
aF0.007639529453487575
aF0.004872239168265284
aF0.004872239168265284
aF0.002095492284541223
aF0.002095492284541223
asS'58'
p83
(lp84
F0.05368111986333485
aF0.05368111986333485
aF0.053526343304058255
aF0.053526343304058255
aF0.05321723644657901
aF0.05321723644657901
aF0.052754690526370836
aF0.052754690526370836
aF0.052140039183669815
aF0.052140039183669815
aF0.051375054618285725
aF0.051375054618285725
aF0.05046194247995312
aF0.05046194247995312
aF0.04940333550896239
aF0.04940333550896239
aF0.04820228594541775
aF0.04820228594541775
aF0.046862256729026344
aF0.046862256729026344
aF0.0453871115148198
aF0.0453871115148198
aF0.04378110353364025
aF0.04378110353364025
aF0.042048863329582124
aF0.042048863329582124
aF0.04019538540986779
aF0.04019538540986779
aF0.038226013845858435
aF0.038226013845858435
aF0.03614642686708727
aF0.03614642686708727
aF0.03396262049341601
aF0.03396262049341601
aF0.03168089125380933
aF0.03168089125380933
aF0.02930781804416049
aF0.02930781804416049
aF0.026850243181981866
aF0.026850243181981866
aF0.024315252724963952
aF0.024315252724963952
aF0.021710156140146236
aF0.021710156140146236
aF0.019042465461893407
aF0.019042465461893407
aF0.016319874234970964
aF0.016319874234970964
aF0.013550237112988812
aF0.013550237112988812
aF0.010741553532878773
aF0.010741553532878773
aF0.007901973849998674
aF0.007901973849998674
aF0.005039981612650243
aF0.005039981612650243
aF0.002167723249627449
aF0.002167723249627449
asS'11'
p85
(lp86
F0.2729250867779006
aF0.26280454451024665
aF0.26280454451024665
aF0.23319376459199048
aF0.23319376459199048
aF0.18629021092773426
aF0.18629021092773426
aF0.1255803694649046
aF0.1255803694649046
aF0.05566856711617366
aF0.05566856711617366
asS'10'
p87
(lp88
F0.29552422471475287
aF0.29552422471475287
aF0.26926671930999635
aF0.26926671930999635
aF0.21908636251598204
aF0.21908636251598204
aF0.1494513491505806
aF0.1494513491505806
aF0.06667134430868814
aF0.06667134430868814
asS'39'
p89
(lp90
F0.07952762213944285
aF0.07927622256836847
aF0.07927622256836847
aF0.07852361328737117
aF0.07852361328737117
aF0.07727455254468202
aF0.07727455254468202
aF0.07553693732283606
aF0.07553693732283606
aF0.07332175341426862
aF0.07332175341426862
aF0.07064300597060875
aF0.07064300597060875
aF0.06751763096623127
aF0.06751763096623127
aF0.06396538813868238
aF0.06396538813868238
aF0.06000873608859615
aF0.06000873608859615
aF0.0556726903409163
aF0.0556726903409163
aF0.0509846652921294
aF0.0509846652921294
aF0.04597430110891663
aF0.04597430110891663
aF0.04067327684793384
aF0.04067327684793384
aF0.03511511149813133
aF0.03511511149813133
aF0.02933495598390338
aF0.02933495598390338
aF0.023369384832178163
aF0.023369384832178163
aF0.017256229093724918
aF0.017256229093724918
aF0.011034788939164594
aF0.011034788939164594
aF0.004752944691635101
aF0.004752944691635101
asS'38'
p91
(lp92
F0.08152502928038578
aF0.08152502928038578
aF0.0809824937705971
aF0.0809824937705971
aF0.07990103324352782
aF0.07990103324352782
aF0.07828784465821095
aF0.07828784465821095
aF0.0761536635484464
aF0.0761536635484464
aF0.07351269258474345
aF0.07351269258474345
aF0.07038250706689896
aF0.07038250706689896
aF0.06678393797914041
aF0.06678393797914041
aF0.06274093339213306
aF0.06274093339213306
aF0.0582803991469972
aF0.0582803991469972
aF0.05343201991033232
aF0.05343201991033232
aF0.04822806186075868
aF0.04822806186075868
aF0.04270315850467443
aF0.04270315850467443
aF0.03689408159402474
aF0.03689408159402474
aF0.030839500545175053
aF0.030839500545175053
aF0.024579739738232374
aF0.024579739738232374
aF0.018156577709613236
aF0.018156577709613236
aF0.011613444716468675
aF0.011613444716468675
aF0.005002880749639345
aF0.005002880749639345
asS'15'
p93
(lp94
F0.20257824192556126
aF0.19843148532711158
aF0.19843148532711158
aF0.1861610000155622
aF0.1861610000155622
aF0.16626920581699392
aF0.16626920581699392
aF0.13957067792615432
aF0.13957067792615432
aF0.10715922046717194
aF0.10715922046717194
aF0.07036604748810812
aF0.07036604748810812
aF0.03075324199611727
aF0.03075324199611727
asS'14'
p95
(lp96
F0.2152638534631578
aF0.2152638534631578
aF0.2051984637212956
aF0.2051984637212956
aF0.18553839747793782
aF0.18553839747793782
aF0.15720316715819355
aF0.15720316715819355
aF0.12151857068790319
aF0.12151857068790319
aF0.08015808715976021
aF0.08015808715976021
aF0.03511946033175186
aF0.03511946033175186
asS'17'
p97
(lp98
F0.17944647035620653
aF0.17656270536699264
aF0.17656270536699264
aF0.16800410215645004
aF0.16800410215645004
aF0.15404576107681028
aF0.15404576107681028
aF0.13513636846852548
aF0.13513636846852548
aF0.11188384719340397
aF0.11188384719340397
aF0.08503614831717918
aF0.08503614831717918
aF0.0554595293739872
aF0.0554595293739872
aF0.02414830286854793
aF0.02414830286854793
asS'16'
p99
(lp100
F0.1894506104550685
aF0.1894506104550685
aF0.18260341504492358
aF0.18260341504492358
aF0.16915651939500254
aF0.16915651939500254
aF0.14959598881657674
aF0.14959598881657674
aF0.12462897125553388
aF0.12462897125553388
aF0.09515851168249279
aF0.09515851168249279
aF0.062253523938647894
aF0.062253523938647894
aF0.027152459411754093
aF0.027152459411754093
asS'19'
p101
(lp102
F0.1610544498487837
aF0.15896884339395434
aF0.15896884339395434
aF0.15276604206585967
aF0.15276604206585967
aF0.1426067021736066
aF0.1426067021736066
aF0.12875396253933621
aF0.12875396253933621
aF0.11156664554733399
aF0.11156664554733399
aF0.09149002162245
aF0.09149002162245
aF0.06904454273764123
aF0.06904454273764123
aF0.0448142267656996
aF0.0448142267656996
aF0.019461788229726478
aF0.019461788229726478
asS'32'
p103
(lp104
F0.0965400885147278
aF0.0965400885147278
aF0.09563872007927486
aF0.09563872007927486
aF0.09384439908080457
aF0.09384439908080457
aF0.09117387869576389
aF0.09117387869576389
aF0.08765209300440381
aF0.08765209300440381
aF0.08331192422694675
aF0.08331192422694675
aF0.07819389578707031
aF0.07819389578707031
aF0.0723457941088485
aF0.0723457941088485
aF0.06582222277636185
aF0.06582222277636185
aF0.058684093478535544
aF0.058684093478535544
aF0.050998059262376175
aF0.050998059262376175
aF0.04283589802222668
aF0.04283589802222668
aF0.03427386291302143
aF0.03427386291302143
aF0.02539206530926206
aF0.02539206530926206
aF0.01627439473090567
aF0.01627439473090567
aF0.007018610009470096
aF0.007018610009470096
asS'31'
p105
(lp106
F0.09972054479342646
aF0.09922501122667231
aF0.09922501122667231
aF0.09774333538632872
aF0.09774333538632872
aF0.09529024291231951
aF0.09529024291231951
aF0.09189011389364148
aF0.09189011389364148
aF0.08757674060847788
aF0.08757674060847788
aF0.08239299176158926
aF0.08239299176158926
aF0.07639038659877662
aF0.07639038659877662
aF0.06962858323541037
aF0.06962858323541037
aF0.06217478656102843
aF0.06217478656102843
aF0.054103082424916855
aF0.054103082424916855
aF0.045493707527201104
aF0.045493707527201104
aF0.03643227391238547
aF0.03643227391238547
aF0.02700901918497942
aF0.02700901918497942
aF0.01731862079031058
aF0.01731862079031058
aF0.007470831579248775
aF0.007470831579248775
asS'30'
p107
(lp108
F0.10285265289355884
aF0.10285265289355884
aF0.1017623897484055
aF0.1017623897484055
aF0.09959342058679527
aF0.09959342058679527
aF0.09636873717464425
aF0.09636873717464425
aF0.09212252223778612
aF0.09212252223778612
aF0.08689978720108298
aF0.08689978720108298
aF0.08075589522942021
aF0.08075589522942021
aF0.0737559747377052
aF0.0737559747377052
aF0.06597422988218049
aF0.06597422988218049
aF0.057493156217619065
aF0.057493156217619065
aF0.04840267283059405
aF0.04840267283059405
aF0.03879919256962705
aF0.03879919256962705
aF0.02878470788332337
aF0.02878470788332337
aF0.01846646831109096
aF0.01846646831109096
aF0.007968192496166605
aF0.007968192496166605
asS'37'
p109
(lp110
F0.0837683609931389
aF0.08347457362586279
aF0.08347457362586279
aF0.08259527223643726
aF0.08259527223643726
aF0.08113662450846502
aF0.08113662450846502
aF0.07910886183752938
aF0.07910886183752938
aF0.07652620757052923
aF0.07652620757052923
aF0.07340677724848817
aF0.07340677724848817
aF0.06977245155570035
aF0.06977245155570035
aF0.06564872287275125
aF0.06564872287275125
aF0.06106451652322598
aF0.06106451652322598
aF0.05605198799827492
aF0.05605198799827492
aF0.050646297654824604
aF0.050646297654824604
aF0.044885364662437165
aF0.044885364662437165
aF0.03880960250193454
aF0.03880960250193454
aF0.032461639847521484
aF0.032461639847521484
aF0.025886036990558935
aF0.025886036990558935
aF0.019129044489083966
aF0.019129044489083966
aF0.012238780100307557
aF0.012238780100307557
aF0.005273057279497939
aF0.005273057279497939
asS'36'
p111
(lp112
F0.08598327567039475
aF0.08598327567039475
aF0.08534668573933862
aF0.08534668573933862
aF0.08407821897966193
aF0.08407821897966193
aF0.0821872667043397
aF0.0821872667043397
aF0.0796878289120716
aF0.0796878289120716
aF0.07659841064587067
aF0.07659841064587067
aF0.07294188500565306
aF0.07294188500565306
aF0.06874532383573644
aF0.06874532383573644
aF0.06403979735501548
aF0.06403979735501548
aF0.05886014424532482
aF0.05886014424532482
aF0.05324471397775992
aF0.05324471397775992
aF0.04723508349026598
aF0.04723508349026598
aF0.04087575092364489
aF0.04087575092364489
aF0.03421381077030723
aF0.03421381077030723
aF0.02729862149856878
aF0.02729862149856878
aF0.020181515297735472
aF0.020181515297735472
aF0.012915947284065574
aF0.012915947284065574
aF0.005565719664245045
aF0.005565719664245045
asS'35'
p113
(lp114
F0.08848679490710429
aF0.08814053043027546
aF0.08814053043027546
aF0.08710444699718353
aF0.08710444699718353
aF0.08538665339209912
aF0.08538665339209912
aF0.08300059372885658
aF0.08300059372885658
aF0.07996494224232426
aF0.07996494224232426
aF0.07630345715544205
aF0.07630345715544205
aF0.07204479477256007
aF0.07204479477256007
aF0.0672222852690869
aF0.0672222852690869
aF0.061873671966080186
aF0.061873671966080186
aF0.05604081621237013
aF0.05604081621237013
aF0.04976937040135353
aF0.04976937040135353
aF0.043108422326170216
aF0.043108422326170216
aF0.03611011586346338
aF0.03611011586346338
aF0.028829260108894254
aF0.028829260108894254
aF0.02132297991148358
aF0.02132297991148358
aF0.013650828348361493
aF0.013650828348361493
aF0.005883433420443084
aF0.005883433420443084
asS'34'
p115
(lp116
F0.09095674033025987
aF0.09095674033025987
aF0.09020304437064072
aF0.09020304437064072
aF0.08870189783569386
aF0.08870189783569386
aF0.08646573974703575
aF0.08646573974703575
aF0.08351309969984566
aF0.08351309969984566
aF0.07986844433977185
aF0.07986844433977185
aF0.07556197466003194
aF0.07556197466003194
aF0.07062937581425573
aF0.07062937581425573
aF0.06511152155407642
aF0.06511152155407642
aF0.059054135827524494
aF0.059054135827524494
aF0.05250741457267811
aF0.05250741457267811
aF0.04552561152335327
aF0.04552561152335327
aF0.03816659379638752
aF0.03816659379638752
aF0.03049138063844613
aF0.03049138063844613
aF0.02256372198549497
aF0.02256372198549497
aF0.014450162748595036
aF0.014450162748595036
aF0.006229140555908684
aF0.006229140555908684
asS'33'
p117
(lp118
F0.09376844616020999
aF0.09335642606559612
aF0.09335642606559612
aF0.09212398664331685
aF0.09212398664331685
aF0.09008195866063858
aF0.09008195866063858
aF0.08724828761884433
aF0.08724828761884433
aF0.0836478760670387
aF0.0836478760670387
aF0.07931236479488674
aF0.07931236479488674
aF0.07427985484395415
aF0.07427985484395415
aF0.06859457281865672
aF0.06859457281865672
aF0.06230648253031748
aF0.06230648253031748
aF0.05547084663166356
aF0.05547084663166356
aF0.048147742818711696
aF0.048147742818711696
aF0.040401541331669594
aF0.040401541331669594
aF0.032300358632328954
aF0.032300358632328954
aF0.02391554810174948
aF0.02391554810174948
aF0.015321701512934676
aF0.015321701512934676
aF0.006606227847587378
aF0.006606227847587378
asS'55'
p119
(lp120
F0.05660297644456042
aF0.056512318249772
aF0.056512318249772
aF0.056240634071084365
aF0.056240634071084365
aF0.05578879419528409
aF0.05578879419528409
aF0.05515824600250869
aF0.05515824600250869
aF0.054351009329911104
aF0.054351009329911104
aF0.053369670001605474
aF0.053369670001605474
aF0.05221737154563209
aF0.05221737154563209
aF0.05089780512449398
aF0.05089780512449398
aF0.04941519771155174
aF0.04941519771155174
aF0.047774298551200696
aF0.047774298551200696
aF0.04598036394628384
aF0.04598036394628384
aF0.04403914042160659
aF0.04403914042160659
aF0.04195684631771876
aF0.04195684631771876
aF0.03974015187433718
aF0.03974015187433718
aF0.037396157867965546
aF0.037396157867965546
aF0.034932372873589884
aF0.034932372873589884
aF0.03235668922618583
aF0.03235668922618583
aF0.02967735776516104
aF0.02967735776516104
aF0.02690296145639627
aF0.02690296145639627
aF0.02404238800972562
aF0.02404238800972562
aF0.021104801668016454
aF0.021104801668016454
aF0.01809961452072906
aF0.01809961452072906
aF0.015036458333511788
aF0.015036458333511788
aF0.011925160719848612
aF0.011925160719848612
aF0.008775746107058528
aF0.008775746107058528
aF0.005598632266560767
aF0.005598632266560767
aF0.002408323619979788
aF0.002408323619979788
asS'18'
p121
(lp122
F0.1691423829631436
aF0.1691423829631436
aF0.16427648374583273
aF0.16427648374583273
aF0.15468467512626524
aF0.15468467512626524
aF0.14064291467065065
aF0.14064291467065065
aF0.12255520671147846
aF0.12255520671147846
aF0.10094204410628717
aF0.10094204410628717
aF0.07642573025488905
aF0.07642573025488905
aF0.0497145488949698
aF0.0497145488949698
aF0.02161601352648331
aF0.02161601352648331
asS'57'
p123
(lp124
F0.05463432875658403
aF0.05455280360476188
aF0.05455280360476188
aF0.05430847145249864
aF0.05430847145249864
aF0.053902061483298576
aF0.053902061483298576
aF0.05333478658481916
aF0.05333478658481916
aF0.05260833972917743
aF0.05260833972917743
aF0.051724888920517825
aF0.051724888920517825
aF0.05068707072492741
aF0.05068707072492741
aF0.04949798240201968
aF0.04949798240201968
aF0.04816117266168775
aF0.04816117266168775
aF0.0466806310736415
aF0.0466806310736415
aF0.045060776161381155
aF0.045060776161381155
aF0.0433064422162152
aF0.0433064422162152
aF0.04142286487080111
aF0.04142286487080111
aF0.039415665475480116
aF0.039415665475480116
aF0.037290834324417314
aF0.037290834324417314
aF0.03505471278231262
aF0.03505471278231262
aF0.032713974366371565
aF0.032713974366371565
aF0.030275604842694
aF0.030275604842694
aF0.027746881402180193
aF0.027746881402180193
aF0.025135350990918123
aF0.025135350990918123
aF0.022448807890776436
aF0.022448807890776436
aF0.01969527069948852
aF0.01969527069948852
aF0.01688295902344155
aF0.01688295902344155
aF0.014020270790753556
aF0.014020270790753556
aF0.01111576373233599
aF0.01111576373233599
aF0.008178160067821232
aF0.008178160067821232
aF0.005216533474718779
aF0.005216533474718779
aF0.002243753872250662
aF0.002243753872250662
asS'50'
p125
(lp126
F0.06217661665534726
aF0.06217661665534726
aF0.06193606742068324
aF0.06193606742068324
aF0.061455899590316665
aF0.061455899590316665
aF0.06073797084177022
aF0.06073797084177022
aF0.059785058704265454
aF0.059785058704265454
aF0.058600849813222444
aF0.058600849813222444
aF0.05718992564772838
aF0.05718992564772838
aF0.05555774480621252
aF0.05555774480621252
aF0.053710621888996245
aF0.053710621888996245
aF0.05165570306958114
aF0.05165570306958114
aF0.04940093844946632
aF0.04940093844946632
aF0.046955051303948434
aF0.046955051303948434
aF0.044327504338803274
aF0.044327504338803274
aF0.041528463090147696
aF0.041528463090147696
aF0.03856875661258768
aF0.03856875661258768
aF0.03545983561514615
aF0.03545983561514615
aF0.032213728223578014
aF0.032213728223578014
aF0.028842993580535197
aF0.028842993580535197
aF0.02536067357001239
aF0.02536067357001239
aF0.02178024317012479
aF0.02178024317012479
aF0.01811556071348939
aF0.01811556071348939
aF0.014380822761485574
aF0.014380822761485574
aF0.010590548383650969
aF0.010590548383650969
aF0.006759799195745401
aF0.006759799195745401
aF0.00290862255315514
aF0.00290862255315514
as.