(dp0
S'56'
p1
(lp2
F-0.02779703528727543
aF0.027797035287275437
aF-0.08330518682243537
aF0.08330518682243537
aF-0.13855584681037625
aF0.13855584681037625
aF-0.19337823863527526
aF0.19337823863527526
aF-0.2476029094343372
aF0.24760290943433721
aF-0.3010622538672207
aF0.3010622538672207
aF-0.3535910321749545
aF0.3535910321749545
aF-0.40502688092709127
aF0.40502688092709127
aF-0.45521081487845955
aF0.4552108148784596
aF-0.5039877183843817
aF0.5039877183843817
aF-0.5512068248555346
aF0.5512068248555346
aF-0.5967221827706634
aF0.5967221827706634
aF-0.6403931068070069
aF0.6403931068070069
aF-0.6820846126944704
aF0.6820846126944704
aF-0.7216678344501881
aF0.7216678344501881
aF-0.7590204227051289
aF0.7590204227051289
aF-0.7940269228938664
aF0.7940269228938664
aF-0.8265791321428817
aF0.8265791321428817
aF-0.8565764337627486
aF0.8565764337627486
aF-0.8839261083278276
aF0.8839261083278276
aF-0.9085436204206555
aF0.9085436204206555
aF-0.9303528802474963
aF0.9303528802474963
aF-0.9492864795619627
aF0.9492864795619627
aF-0.9652859019054901
aF0.9652859019054901
aF-0.9783017091402564
aF0.9783017091402564
aF-0.9882937155401615
aF0.9882937155401615
aF-0.9952312260810697
aF0.9952312260810697
aF-0.9990943438014656
aF0.9990943438014656
asS'54'
p3
(lp4
F-0.02881674819934177
aF0.028816748199341775
aF-0.0863545182632482
aF0.08635451826324822
aF-0.14360542731625614
aF0.14360542731625614
aF-0.20037929360621357
aF0.20037929360621357
aF-0.2564875200699973
aF0.2564875200699973
aF-0.3117437208344682
aF0.3117437208344682
aF-0.36596434037219117
aF0.36596434037219117
aF-0.4189692632552045
aF0.4189692632552045
aF-0.4705824124813823
aF0.4705824124813823
aF-0.520632334385933
aF0.520632334385933
aF-0.5689527681952095
aF0.5689527681952095
aF-0.6153831983311274
aF0.6153831983311274
aF-0.6597693876319831
aF0.6597693876319831
aF-0.7019638897191729
aF0.7019638897191729
aF-0.7418265388091843
aF0.7418265388091844
aF-0.779224915346254
aF0.779224915346254
aF-0.8140347859135678
aF0.8140347859135678
aF-0.8461405159707729
aF0.846140515970773
aF-0.8754354540655689
aF0.8754354540655689
aF-0.9018222862847016
aF0.9018222862847016
aF-0.9252133598666514
aF0.9252133598666515
aF-0.9455309751649958
aF0.9455309751649958
aF-0.9627076457859236
aF0.9627076457859236
aF-0.9766863288579032
aF0.9766863288579032
aF-0.9874206373973435
aF0.9874206373973435
aF-0.9948751170183389
aF0.9948751170183389
aF-0.999026666867341
aF0.999026666867341
asS'28'
p5
(lp6
F-0.05507928988403427
aF0.05507928988403427
aF-0.16456928213338076
aF0.16456928213338076
aF-0.27206162763517805
aF0.27206162763517805
aF-0.3762515160890787
aF0.3762515160890787
aF-0.4758742249551183
aF0.4758742249551183
aF-0.5697204718114017
aF0.5697204718114017
aF-0.656651094038865
aF0.656651094038865
aF-0.7356108780136318
aF0.7356108780136318
aF-0.8056413709171791
aF0.8056413709171791
aF-0.8658925225743951
aF0.8658925225743951
aF-0.9156330263921321
aF0.9156330263921321
aF-0.9542592806289382
aF0.9542592806289382
aF-0.9813031653708727
aF0.9813031653708727
aF-0.9964424975739544
aF0.9964424975739544
asS'48'
p7
(lp8
F-0.03238017096286936
aF0.03238017096286936
aF-0.09700469920946268
aF0.0970046992094627
aF-0.1612223560688917
aF0.1612223560688917
aF-0.22476379039468905
aF0.22476379039468905
aF-0.28736248735545555
aF0.28736248735545555
aF-0.34875588629216075
aF0.34875588629216075
aF-0.4086864819907167
aF0.4086864819907167
aF-0.4669029047509584
aF0.4669029047509584
aF-0.523160974722233
aF0.523160974722233
aF-0.5772247260839727
aF0.5772247260839727
aF-0.6288673967765136
aF0.6288673967765136
aF-0.6778723796326639
aF0.6778723796326639
aF-0.7240341309238146
aF0.7240341309238146
aF-0.7671590325157404
aF0.7671590325157404
aF-0.8070662040294426
aF0.8070662040294426
aF-0.8435882616243935
aF0.8435882616243935
aF-0.8765720202742479
aF0.8765720202742479
aF-0.9058791367155696
aF0.9058791367155696
aF-0.9313866907065543
aF0.9313866907065543
aF-0.9529877031604309
aF0.9529877031604309
aF-0.9705915925462473
aF0.9705915925462473
aF-0.9841245837228269
aF0.9841245837228269
aF-0.9935301722663508
aF0.9935301722663508
aF-0.9987710072524261
aF0.9987710072524261
asS'29'
p9
(lp10
F0.0
aF-0.10627823013267923
aF0.10627823013267923
aF-0.21135228616600107
aF0.21135228616600107
aF-0.31403163786763993
aF0.31403163786763993
aF-0.41315288817400864
aF0.41315288817400864
aF-0.5075929551242276
aF0.5075929551242276
aF-0.5962817971382278
aF0.5962817971382278
aF-0.6782145376026865
aF0.6782145376026865
aF-0.7524628517344771
aF0.7524628517344771
aF-0.8181854876152524
aF0.8181854876152524
aF-0.8746378049201028
aF0.8746378049201028
aF-0.9211802329530587
aF0.9211802329530587
aF-0.9572855957780877
aF0.9572855957780877
aF-0.9825455052614132
aF0.9825455052614132
aF-0.9966794422605966
aF0.9966794422605966
asS'60'
p11
(lp12
F-0.02595977230124779
aF0.025959772301247797
aF-0.07780933394953655
aF0.07780933394953657
aF-0.129449135396945
aF0.129449135396945
aF-0.18073996487342542
aF0.18073996487342542
aF-0.23154355137602933
aF0.23154355137602933
aF-0.2817229374232617
aF0.2817229374232617
aF-0.3311428482684482
aF0.3311428482684482
aF-0.379670056576798
aF0.379670056576798
aF-0.42717374158307836
aF0.4271737415830784
aF-0.4735258417617071
aF0.4735258417617071
aF-0.5186014000585697
aF0.5186014000585697
aF-0.5622789007539445
aF0.5622789007539445
aF-0.6044405970485104
aF0.6044405970485104
aF-0.644972828489477
aF0.644972828489477
aF-0.6837663273813555
aF0.6837663273813555
aF-0.7207165133557304
aF0.7207165133557304
aF-0.7557237753065856
aF0.7557237753065856
aF-0.7886937399322641
aF0.7886937399322641
aF-0.8195375261621457
aF0.8195375261621458
aF-0.8481719847859296
aF0.8481719847859296
aF-0.8745199226468983
aF0.8745199226468983
aF-0.898510310810046
aF0.898510310810046
aF-0.9200784761776275
aF0.9200784761776275
aF-0.9391662761164232
aF0.9391662761164232
aF-0.9557222558399961
aF0.9557222558399961
aF-0.9697017887650528
aF0.9697017887650528
aF-0.9810672017525982
aF0.9810672017525982
aF-0.9897878952222217
aF0.9897878952222218
aF-0.9958405251188381
aF0.9958405251188381
aF-0.999210123227436
aF0.9992101232274361
asS'61'
p13
(lp14
F0.0
aF-0.05105890670797434
aF0.05105890670797435
aF-0.10198460656227407
aF0.10198460656227407
aF-0.1526442402308153
aF0.1526442402308153
aF-0.20290564251805848
aF0.2029056425180585
aF-0.2526376871690535
aF0.2526376871690535
aF-0.3017106289630307
aF0.3017106289630307
aF-0.34999644220406684
aF0.34999644220406684
aF-0.3973691547257566
aF0.3973691547257566
aF-0.4437051765385316
aF0.4437051765385316
aF-0.4888836222622521
aF0.4888836222622521
aF-0.5327866265029253
aF0.5327866265029253
aF-0.5752996513508306
aF0.5752996513508306
aF-0.6163117851979217
aF0.6163117851979217
aF-0.6557160320950709
aF0.6557160320950709
aF-0.6934095908944912
aF0.6934095908944912
aF-0.7292941234494651
aF0.7292941234494651
aF-0.7632760111723121
aF0.7632760111723123
aF-0.7952665992823597
aF0.7952665992823597
aF-0.8251824281086599
aF0.8251824281086599
aF-0.8529454508476635
aF0.8529454508476635
aF-0.8784832372148811
aF0.8784832372148811
aF-0.9017291624740011
aF0.9017291624740011
aF-0.9226225813829553
aF0.9226225813829553
aF-0.9411089866813611
aF0.9411089866813611
aF-0.9571401519129841
aF0.9571401519129841
aF-0.9706742588331829
aF0.9706742588331829
aF-0.981676011284037
aF0.981676011284037
aF-0.990116745232517
aF0.990116745232517
aF-0.9959745998151203
aF0.9959745998151203
aF-0.9992355976313635
aF0.9992355976313635
asS'62'
p15
(lp16
F-0.02512929142182061
aF0.025129291421820615
aF-0.07532439549623433
aF0.07532439549623433
aF-0.1253292236158968
aF0.1253292236158968
aF-0.17501745924901563
aF0.17501745924901563
aF-0.22426358560416554
aF0.22426358560416554
aF-0.27294320269672634
aF0.27294320269672634
aF-0.320933341594194
aF0.320933341594194
aF-0.36811277504656453
aF0.36811277504656453
aF-0.41436232371712606
aF0.41436232371712606
aF-0.4595651572401134
aF0.4595651572401134
aF-0.503607089344756
aF0.503607089344756
aF-0.5463768663002511
aF0.5463768663002511
aF-0.5877664479530873
aF0.5877664479530873
aF-0.6276712806468852
aF0.6276712806468852
aF-0.6659905613354794
aF0.6659905613354794
aF-0.702627492222297
aF0.702627492222297
aF-0.7374895252831567
aF0.7374895252831567
aF-0.7704885960554193
aF0.7704885960554193
aF-0.8015413461039763
aF0.8015413461039764
aF-0.8305693336040049
aF0.8305693336040049
aF-0.857499231512071
aF0.857499231512071
aF-0.8822630128318973
aF0.8822630128318973
aF-0.9047981225210935
aF0.9047981225210935
aF-0.9250476356362037
aF0.9250476356362037
aF-0.9429604013923285
aF0.9429604013923285
aF-0.958491172973927
aF0.958491172973927
aF-0.9716007233716518
aF0.9716007233716518
aF-0.9822559490972367
aF0.9822559490972367
aF-0.9904299711892903
aF0.9904299711892903
aF-0.9961022963162671
aF0.9961022963162671
aF-0.999259859308777
aF0.999259859308777
asS'63'
p17
(lp18
F0.0
aF-0.04945218711615962
aF0.049452187116159625
aF-0.09878335644694528
aF0.09878335644694528
aF-0.14787278635787196
aF0.14787278635787196
aF-0.19660034679150667
aF0.19660034679150667
aF-0.24484679324595335
aF0.24484679324595338
aF-0.29249405858625144
aF0.29249405858625144
aF-0.3394255419745844
aF0.3394255419745844
aF-0.3855263942122479
aF0.3855263942122479
aF-0.4306837987951116
aF0.4306837987951116
aF-0.4747872479948044
aF0.4747872479948044
aF-0.5177288132900333
aF0.5177288132900333
aF-0.559403409486285
aF0.559403409486285
aF-0.5997090518776252
aF0.5997090518776252
aF-0.6385471058213654
aF0.6385471058213654
aF-0.6758225281149861
aF0.6758225281149861
aF-0.7114440995848458
aF0.7114440995848458
aF-0.7453246483178474
aF0.7453246483178474
aF-0.7773812629903724
aF0.7773812629903724
aF-0.8075354957734567
aF0.8075354957734567
aF-0.8357135543195029
aF0.8357135543195029
aF-0.8618464823641238
aF0.8618464823641238
aF-0.8858703285078534
aF0.8858703285078534
aF-0.9077263027785315
aF0.9077263027785316
aF-0.9273609206218432
aF0.9273609206218432
aF-0.9447261340410098
aF0.9447261340410098
aF-0.9597794497589419
aF0.9597794497589419
aF-0.97248403469757
aF0.97248403469757
aF-0.9828088105937273
aF0.9828088105937273
aF-0.9907285468921895
aF0.9907285468921895
aF-0.9962240127779701
aF0.9962240127779701
aF-0.9992829840291237
aF0.9992829840291237
asS'64'
p19
(lp20
F-0.02435029266342443
aF0.024350292663424433
aF-0.07299312178779903
aF0.07299312178779904
aF-0.12146281929612054
aF0.12146281929612056
aF-0.1696444204239928
aF0.16964442042399283
aF-0.21742364374000708
aF0.21742364374000708
aF-0.2646871622087674
aF0.2646871622087674
aF-0.31132287199021097
aF0.31132287199021097
aF-0.3572201583376681
aF0.3572201583376681
aF-0.4022701579639916
aF0.4022701579639916
aF-0.4463660172534641
aF0.4463660172534641
aF-0.48940314570705296
aF0.48940314570705296
aF-0.5312794640198946
aF0.5312794640198946
aF-0.571895646202634
aF0.571895646202634
aF-0.6111553551723933
aF0.6111553551723933
aF-0.6489654712546573
aF0.6489654712546573
aF-0.6852363130542333
aF0.6852363130542333
aF-0.7198818501716108
aF0.7198818501716108
aF-0.7528199072605319
aF0.7528199072605319
aF-0.7839723589433414
aF0.7839723589433414
aF-0.8132653151227975
aF0.8132653151227975
aF-0.8406292962525803
aF0.8406292962525803
aF-0.8659993981540928
aF0.8659993981540928
aF-0.8893154459951141
aF0.8893154459951141
aF-0.9105221370785028
aF0.9105221370785028
aF-0.9295691721319396
aF0.9295691721319396
aF-0.9464113748584028
aF0.9464113748584028
aF-0.9610087996520537
aF0.9610087996520538
aF-0.973326827789911
aF0.973326827789911
aF-0.983336253884626
aF0.983336253884626
aF-0.9910133714767443
aF0.9910133714767443
aF-0.9963401167719552
aF0.9963401167719553
aF-0.9993050417357722
aF0.9993050417357722
asS'49'
p21
(lp22
F0.0
aF-0.06342068498268678
aF0.06342068498268678
aF-0.12658599726967204
aF0.12658599726967204
aF-0.18924159246181357
aF0.18924159246181357
aF-0.2511351786125773
aF0.2511351786125773
aF-0.31201753211974875
aF0.31201753211974875
aF-0.3716435012622849
aF0.3716435012622849
aF-0.42977299334157654
aF0.42977299334157654
aF-0.48617194145249204
aF0.48617194145249204
aF-0.5406132469917261
aF0.5406132469917261
aF-0.5928776941089007
aF0.5928776941089007
aF-0.6427548324192377
aF0.6427548324192377
aF-0.6900438244251321
aF0.6900438244251321
aF-0.7345542542374027
aF0.7345542542374027
aF-0.7761068943454467
aF0.7761068943454467
aF-0.8145344273598555
aF0.8145344273598555
aF-0.8496821198441658
aF0.8496821198441658
aF-0.8814084455730089
aF0.8814084455730089
aF-0.9095856558280733
aF0.9095856558280733
aF-0.9341002947558101
aF0.9341002947558101
aF-0.9548536586741372
aF0.9548536586741372
aF-0.9717622009015554
aF0.9717622009015554
aF-0.984757895914213
aF0.984757895914213
aF-0.9937886619441678
aF0.9937886619441678
aF-0.9988201506066353
aF0.9988201506066354
asS'52'
p23
(lp24
F-0.02991410979733876
aF0.029914109797338766
aF-0.08963524464890056
aF0.08963524464890056
aF-0.14903550860694917
aF0.14903550860694917
aF-0.20790226415636606
aF0.20790226415636606
aF-0.2660247836050018
aF0.2660247836050018
aF-0.32319500343480784
aF0.32319500343480784
aF-0.3792082691160937
aF0.3792082691160937
aF-0.4338640677187617
aF0.4338640677187617
aF-0.48696674569809606
aF0.48696674569809606
aF-0.5383262092858274
aF0.5383262092858274
aF-0.5877586049795791
aF0.5877586049795791
aF-0.6350869776952459
aF0.6350869776952459
aF-0.6801419042271677
aF0.6801419042271677
aF-0.7227620997499832
aF0.7227620997499832
aF-0.7627949951937449
aF0.7627949951937449
aF-0.8000972834304683
aF0.8000972834304684
aF-0.8345354323267345
aF0.8345354323267345
aF-0.8659861628460676
aF0.8659861628460676
aF-0.8943368905344953
aF0.8943368905344953
aF-0.9194861289164246
aF0.9194861289164246
aF-0.9413438536413591
aF0.9413438536413591
aF-0.9598318269330866
aF0.9598318269330866
aF-0.9748838842217445
aF0.9748838842217445
aF-0.9864461956515499
aF0.9864461956515499
aF-0.9944775909292161
aF0.9944775909292161
aF-0.9989511111039503
aF0.9989511111039503
asS'53'
p25
(lp26
F0.0
aF-0.05868505430025946
aF0.058685054300259464
aF-0.11716780907195515
aF0.11716780907195515
aF-0.17524666215532575
aF0.17524666215532575
aF-0.23272140372427258
aF0.23272140372427258
aF-0.2893939064516262
aF0.2893939064516262
aF-0.34506880849572236
aF0.34506880849572236
aF-0.39955418695395295
aF0.39955418695395295
aF-0.4526622194618458
aF0.4526622194618458
aF-0.5042098316571334
aF0.5042098316571334
aF-0.5540193282770679
aF0.5540193282770679
aF-0.6019190057137693
aF0.6019190057137693
aF-0.64774374391651
aF0.64774374391651
aF-0.6913355756013667
aF0.6913355756013667
aF-0.7325442308075103
aF0.7325442308075103
aF-0.7712276549255322
aF0.7712276549255324
aF-0.8072524984168955
aF0.8072524984168955
aF-0.8404945765458014
aF0.8404945765458014
aF-0.8708392975582413
aF0.8708392975582413
aF-0.8981820578754266
aF0.8981820578754266
aF-0.9224286030428122
aF0.9224286030428122
aF-0.9434953534644419
aF0.9434953534644419
aF-0.9613096946231363
aF0.9613096946231363
aF-0.9758102337149845
aF0.9758102337149845
aF-0.9869470350233716
aF0.9869470350233716
aF-0.9946819193080071
aF0.9946819193080071
aF-0.9989899477763282
aF0.9989899477763282
asS'24'
p27
(lp28
F-0.06405689286260562
aF0.06405689286260563
aF-0.1911188674736163
aF0.1911188674736163
aF-0.3150426796961634
aF0.3150426796961634
aF-0.4337935076260451
aF0.4337935076260451
aF-0.5454214713888396
aF0.5454214713888396
aF-0.6480936519369755
aF0.6480936519369755
aF-0.7401241915785544
aF0.7401241915785544
aF-0.820001985973903
aF0.820001985973903
aF-0.8864155270044011
aF0.8864155270044011
aF-0.9382745520027328
aF0.9382745520027328
aF-0.9747285559713095
aF0.9747285559713095
aF-0.9951872199970213
aF0.9951872199970213
asS'25'
p29
(lp30
F0.0
aF-0.1228646926107104
aF0.1228646926107104
aF-0.24386688372098844
aF0.24386688372098844
aF-0.3611723058093878
aF0.36117230580938786
aF-0.473002731445715
aF0.473002731445715
aF-0.577662930241223
aF0.577662930241223
aF-0.6735663684734684
aF0.6735663684734684
aF-0.7592592630373576
aF0.7592592630373576
aF-0.833442628760834
aF0.833442628760834
aF-0.8949919978782753
aF0.8949919978782753
aF-0.9429745712289743
aF0.9429745712289743
aF-0.9766639214595175
aF0.9766639214595175
aF-0.9955569697904981
aF0.9955569697904981
asS'26'
p31
(lp32
F-0.0592300934293132
aF0.05923009342931321
aF-0.17685882035689018
aF0.17685882035689018
aF-0.2920048394859569
aF0.2920048394859569
aF-0.4030517551234863
aF0.4030517551234863
aF-0.5084407148245057
aF0.5084407148245057
aF-0.6066922930176181
aF0.6066922930176181
aF-0.6964272604199573
aF0.6964272604199573
aF-0.7763859488206788
aF0.7763859488206789
aF-0.845445942788498
aF0.845445942788498
aF-0.9026378619843071
aF0.9026378619843071
aF-0.9471590666617142
aF0.9471590666617142
aF-0.978385445956471
aF0.978385445956471
aF-0.9958857011456169
aF0.9958857011456169
asS'27'
p33
(lp34
F0.0
aF-0.11397258560952996
aF0.11397258560952997
aF-0.22645936543953685
aF0.22645936543953685
aF-0.3359939036385089
aF0.3359939036385089
aF-0.44114825175002687
aF0.44114825175002687
aF-0.5405515645794569
aF0.5405515645794569
aF-0.6329079719464952
aF0.6329079719464952
aF-0.7170134737394237
aF0.7170134737394237
aF-0.7917716390705082
aF0.7917716390705082
aF-0.8562079080182945
aF0.8562079080182945
aF-0.9094823206774911
aF0.9094823206774911
aF-0.950900557814705
aF0.9509005578147051
aF-0.9799234759615012
aF0.9799234759615012
aF-0.9961792628889886
aF0.9961792628889886
asS'20'
p35
(lp36
F-0.07652652113349732
aF0.07652652113349734
aF-0.22778585114164507
aF0.22778585114164507
aF-0.37370608871541955
aF0.37370608871541955
aF-0.5108670019508271
aF0.5108670019508271
aF-0.636053680726515
aF0.636053680726515
aF-0.7463319064601508
aF0.7463319064601508
aF-0.8391169718222188
aF0.8391169718222188
aF-0.912234428251326
aF0.912234428251326
aF-0.9639719272779138
aF0.9639719272779138
aF-0.9931285991850949
aF0.9931285991850949
asS'21'
p37
(lp38
F0.0
aF-0.1455618541608951
aF0.1455618541608951
aF-0.2880213168024011
aF0.2880213168024011
aF-0.4243421202074388
aF0.4243421202074388
aF-0.5516188358872198
aF0.5516188358872198
aF-0.6671388041974123
aF0.6671388041974123
aF-0.7684399634756779
aF0.7684399634756779
aF-0.8533633645833173
aF0.8533633645833173
aF-0.9200993341504008
aF0.9200993341504008
aF-0.9672268385663063
aF0.9672268385663063
aF-0.9937521706203895
aF0.9937521706203895
asS'22'
p39
(lp40
F-0.06973927331972223
aF0.06973927331972223
aF-0.20786042668822127
aF0.20786042668822127
aF-0.34193582089208424
aF0.34193582089208424
aF-0.469355837986757
aF0.469355837986757
aF-0.5876404035069116
aF0.5876404035069116
aF-0.6944872631866827
aF0.6944872631866827
aF-0.7878168059792081
aF0.7878168059792081
aF-0.8658125777203002
aF0.8658125777203002
aF-0.926956772187174
aF0.926956772187174
aF-0.9700604978354287
aF0.9700604978354287
aF-0.9942945854823992
aF0.9942945854823992
asS'23'
p41
(lp42
F0.0
aF-0.1332568242984661
aF0.1332568242984661
aF-0.26413568097034495
aF0.26413568097034495
aF-0.3903010380302908
aF0.3903010380302908
aF-0.5095014778460075
aF0.5095014778460075
aF-0.6196098757636461
aF0.6196098757636461
aF-0.7186613631319502
aF0.7186613631319502
aF-0.8048884016188399
aF0.8048884016188399
aF-0.8767523582704416
aF0.8767523582704416
aF-0.9329710868260161
aF0.9329710868260161
aF-0.9725424712181152
aF0.9725424712181152
aF-0.9947693349975522
aF0.9947693349975522
asS'46'
p43
(lp44
F-0.03377219001605204
aF0.03377219001605204
aF-0.10116247530558423
aF0.10116247530558424
aF-0.16809117946710353
aF0.16809117946710353
aF-0.23425292220626975
aF0.23425292220626978
aF-0.29934582270187
aF0.29934582270187
aF-0.3630728770209957
aF0.3630728770209957
aF-0.4251433132828284
aF0.4251433132828284
aF-0.48527391838816464
aF0.48527391838816464
aF-0.5431903302618026
aF0.5431903302618026
aF-0.5986282897127152
aF0.5986282897127152
aF-0.6513348462019977
aF0.6513348462019977
aF-0.7010695120204057
aF0.7010695120204057
aF-0.7476053596156661
aF0.7476053596156661
aF-0.7907300570752742
aF0.7907300570752742
aF-0.8302468370660661
aF0.8302468370660661
aF-0.865975394866858
aF0.865975394866858
aF-0.897752711533942
aF0.897752711533942
aF-0.9254337988067539
aF0.9254337988067539
aF-0.9488923634460897
aF0.9488923634460898
aF-0.9680213918539919
aF0.9680213918539919
aF-0.9827336698041669
aF0.9827336698041669
aF-0.9929623489061744
aF0.9929623489061744
aF-0.998663042133818
aF0.998663042133818
asS'47'
p45
(lp46
F0.0
aF-0.06608692391635566
aF0.06608692391635568
aF-0.1318848665545149
aF0.1318848665545149
aF-0.1971061102791118
aF0.19710611027911182
aF-0.26146545921497455
aF0.26146545921497455
aF-0.3246814863377359
aF0.3246814863377359
aF-0.3864777640846671
aF0.38647776408466716
aF-0.4465840731048557
aF0.4465840731048557
aF-0.5047375838635779
aF0.5047375838635779
aF-0.5606840059346642
aF0.5606840059346642
aF-0.6141786999563736
aF0.6141786999563736
aF-0.6649877473903327
aF0.6649877473903327
aF-0.7128889734090643
aF0.7128889734090643
aF-0.7576729184454386
aF0.7576729184454386
aF-0.799143754167742
aF0.799143754167742
aF-0.8371201398999021
aF0.8371201398999021
aF-0.8714360157968963
aF0.8714360157968963
aF-0.9019413294385253
aF0.9019413294385253
aF-0.9285026930123607
aF0.9285026930123607
aF-0.9510039692577085
aF0.9510039692577085
aF-0.9693467873265645
aF0.9693467873265645
aF-0.9834510030716237
aF0.9834510030716237
aF-0.9932552109877686
aF0.9932552109877686
aF-0.9987187285842121
aF0.9987187285842121
asS'44'
p47
(lp48
F-0.03528923696413535
aF0.035289236964135356
aF-0.10569190170865324
aF0.10569190170865325
aF-0.17556801477551678
aF0.17556801477551678
aF-0.24456945692820126
aF0.24456945692820126
aF-0.3123524665027858
aF0.3123524665027858
aF-0.3785793520147071
aF0.3785793520147071
aF-0.4429201745254115
aF0.4429201745254115
aF-0.5050543913882023
aF0.5050543913882023
aF-0.5646724531854708
aF0.5646724531854708
aF-0.6214773459035758
aF0.6214773459035758
aF-0.6751860706661224
aF0.6751860706661224
aF-0.725531053660717
aF0.725531053660717
aF-0.7722614792487559
aF0.7722614792487559
aF-0.815144539645135
aF0.815144539645135
aF-0.8539665950047104
aF0.8539665950047104
aF-0.8885342382860432
aF0.8885342382860432
aF-0.9186752599841758
aF0.9186752599841758
aF-0.9442395091181941
aF0.9442395091181941
aF-0.9650996504224931
aF0.9650996504224931
aF-0.981151833077914
aF0.981151833077914
aF-0.9923163921385157
aF0.9923163921385159
aF-0.9985402006367742
aF0.9985402006367742
asS'45'
p49
(lp50
F0.0
aF-0.06898698016314417
aF0.06898698016314417
aF-0.13764520598325303
aF0.13764520598325303
aF-0.20564748978326375
aF0.20564748978326375
aF-0.27266976975237756
aF0.27266976975237756
aF-0.33839265425060217
aF0.33839265425060217
aF-0.4025029438585419
aF0.4025029438585419
aF-0.4646951239196351
aF0.4646951239196351
aF-0.5246728204629161
aF0.5246728204629161
aF-0.5821502125693532
aF0.5821502125693532
aF-0.6368533944532233
aF0.6368533944532233
aF-0.6885216807712006
aF0.6885216807712006
aF-0.7369088489454904
aF0.7369088489454904
aF-0.7817843125939062
aF0.7817843125939062
aF-0.8229342205020863
aF0.8229342205020863
aF-0.8601624759606642
aF0.8601624759606642
aF-0.8932916717532418
aF0.8932916717532418
aF-0.9221639367190004
aF0.9221639367190004
aF-0.9466416909956291
aF0.9466416909956291
aF-0.9666083103968947
aF0.9666083103968947
aF-0.9819687150345405
aF0.9819687150345405
aF-0.9926499984472037
aF0.9926499984472037
aF-0.9986036451819367
aF0.9986036451819367
asS'42'
p51
(lp52
F-0.03694894316535177
aF0.03694894316535177
aF-0.11064502720851986
aF0.11064502720851986
aF-0.18373680656485455
aF0.18373680656485455
aF-0.25582507934287907
aF0.25582507934287907
aF-0.3265161244654115
aF0.3265161244654115
aF-0.39542385204297503
aF0.39542385204297503
aF-0.4621719120704219
aF0.4621719120704219
aF-0.5263957499311923
aF0.5263957499311923
aF-0.5877445974851093
aF0.5877445974851093
aF-0.6458833888692478
aF0.6458833888692478
aF-0.7004945905561712
aF0.7004945905561712
aF-0.7512799356894805
aF0.7512799356894805
aF-0.7979620532554874
aF0.7979620532554874
aF-0.8402859832618169
aF0.8402859832618169
aF-0.8780205698121727
aF0.8780205698121727
aF-0.9109597249041275
aF0.9109597249041275
aF-0.9389235573549882
aF0.9389235573549882
aF-0.9617593653382045
aF0.9617593653382045
aF-0.9793425080637482
aF0.9793425080637482
aF-0.9915772883408609
aF0.9915772883408609
aF-0.9983996189900625
aF0.9983996189900625
asS'43'
p53
(lp54
F0.0
aF-0.07215299087458622
aF0.07215299087458624
aF-0.1439298095107133
aF0.1439298095107133
aF-0.2149562448605182
aF0.2149562448605182
aF-0.2848619980329136
aF0.2848619980329136
aF-0.3532826128643038
aF0.3532826128643038
aF-0.41986137602926926
aF0.41986137602926926
aF-0.4842511767857347
aF0.4842511767857347
aF-0.5461163166600848
aF0.5461163166600848
aF-0.6051342596396009
aF0.6051342596396009
aF-0.6609973137514982
aF0.6609973137514982
aF-0.7134142352689571
aF0.7134142352689571
aF-0.7621117471949551
aF0.7621117471949551
aF-0.8068359641369386
aF0.8068359641369386
aF-0.847353716209315
aF0.8473537162093151
aF-0.8834537652186168
aF0.8834537652186168
aF-0.9149479072061387
aF0.9149479072061387
aF-0.9416719568476378
aF0.9416719568476378
aF-0.96348661301408
aF0.96348661301408
aF-0.9802782209802553
aF0.9802782209802553
aF-0.9919595575932442
aF0.9919595575932442
aF-0.9984723322425078
aF0.9984723322425078
asS'40'
p55
(lp56
F-0.03877241750605082
aF0.03877241750605082
aF-0.1160840706752552
aF0.11608407067525521
aF-0.19269758070137108
aF0.1926975807013711
aF-0.2681521850072537
aF0.2681521850072537
aF-0.3419940908257585
aF0.3419940908257585
aF-0.413779204371605
aF0.413779204371605
aF-0.4830758016861787
aF0.4830758016861787
aF-0.5494671250951282
aF0.5494671250951282
aF-0.6125538896679802
aF0.6125538896679802
aF-0.6719566846141796
aF0.6719566846141796
aF-0.7273182551899271
aF0.7273182551899271
aF-0.7783056514265194
aF0.7783056514265194
aF-0.8246122308333117
aF0.8246122308333117
aF-0.8659595032122595
aF0.8659595032122595
aF-0.9020988069688743
aF0.9020988069688743
aF-0.9328128082786765
aF0.9328128082786765
aF-0.9579168192137917
aF0.9579168192137917
aF-0.9772599499837743
aF0.9772599499837743
aF-0.990726238699457
aF0.990726238699457
aF-0.9982377097105593
aF0.9982377097105593
asS'41'
p57
(lp58
F0.0
aF-0.07562325898916299
aF0.075623258989163
aF-0.15081335486399217
aF0.15081335486399217
aF-0.22513960563342278
aF0.22513960563342278
aF-0.29817627734182484
aF0.2981762773418249
aF-0.36950502264048146
aF0.36950502264048146
aF-0.43871727705140706
aF0.43871727705140706
aF-0.5054165991994061
aF0.5054165991994061
aF-0.5692209416102159
aF0.5692209416102159
aF-0.6297648390721963
aF0.6297648390721963
aF-0.6867015020349513
aF0.6867015020349513
aF-0.7397048030699261
aF0.7397048030699261
aF-0.7884711450474093
aF0.7884711450474093
aF-0.8327212004013613
aF0.8327212004013613
aF-0.8722015116924414
aF0.8722015116924414
aF-0.9066859447581012
aF0.9066859447581012
aF-0.9359769874978539
aF0.9359769874978539
aF-0.9599068917303463
aF0.9599068917303463
aF-0.9783386735610834
aF0.9783386735610834
aF-0.9911671096990163
aF0.9911671096990163
aF-0.9983215885747715
aF0.9983215885747715
asS'3'
p59
(lp60
F0.0
aF-0.7745966692414834
aF0.7745966692414834
asS'2'
p61
(lp62
F-0.5773502691896257
aF0.5773502691896257
asS'5'
p63
(lp64
F0.0
aF-0.5384693101056831
aF0.5384693101056831
aF-0.906179845938664
aF0.906179845938664
asS'4'
p65
(lp66
F-0.33998104358485626
aF0.33998104358485626
aF-0.8611363115940526
aF0.8611363115940526
asS'7'
p67
(lp68
F0.0
aF0.4058451513773972
aF-0.4058451513773972
aF-0.7415311855993945
aF0.7415311855993945
aF-0.9491079123427585
aF0.9491079123427585
asS'6'
p69
(lp70
F0.6612093864662645
aF-0.6612093864662645
aF-0.2386191860831969
aF0.2386191860831969
aF-0.932469514203152
aF0.932469514203152
asS'9'
p71
(lp72
F0.0
aF-0.8360311073266358
aF0.8360311073266358
aF-0.9681602395076261
aF0.9681602395076261
aF-0.3242534234038089
aF0.3242534234038089
aF-0.6133714327005904
aF0.6133714327005904
asS'8'
p73
(lp74
F-0.1834346424956498
aF0.1834346424956498
aF-0.525532409916329
aF0.525532409916329
aF-0.7966664774136267
aF0.7966664774136267
aF-0.9602898564975362
aF0.9602898564975362
asS'51'
p75
(lp76
F0.0
aF-0.06096110015057872
aF0.06096110015057873
aF-0.12169542101888876
aF0.12169542101888876
aF-0.18197702695707754
aF0.18197702695707754
aF-0.2415816664477987
aF0.24158166644779872
aF-0.3002876063353319
aF0.3002876063353319
aF-0.3578764566884095
aF0.3578764566884095
aF-0.41413398322630385
aF0.4141339832263039
aF-0.46885090428604104
aF0.46885090428604104
aF-0.5218236693661858
aF0.5218236693661858
aF-0.5728552163513039
aF0.5728552163513039
aF-0.6217557046007233
aF0.6217557046007233
aF-0.66834322117537
aF0.66834322117537
aF-0.7124444575770367
aF0.7124444575770367
aF-0.7538953544853755
aF0.7538953544853755
aF-0.7925417120993812
aF0.7925417120993812
aF-0.8282397638230649
aF0.8282397638230649
aF-0.8608567111822923
aF0.8608567111822923
aF-0.8902712180295272
aF0.8902712180295274
aF-0.9163738623097802
aF0.9163738623097802
aF-0.9390675440029623
aF0.9390675440029623
aF-0.9582678486139082
aF0.9582678486139082
aF-0.9739033680193239
aF0.9739033680193239
aF-0.9859159917359029
aF0.9859159917359029
aF-0.9942612604367526
aF0.9942612604367526
aF-0.9989099908489035
aF0.9989099908489035
asS'13'
p77
(lp78
F0.0
aF-0.2304583159551348
aF0.2304583159551348
aF-0.44849275103644687
aF0.44849275103644687
aF-0.6423493394403402
aF0.6423493394403402
aF-0.8015780907333099
aF0.8015780907333099
aF-0.9175983992229779
aF0.9175983992229779
aF-0.9841830547185881
aF0.9841830547185881
asS'12'
p79
(lp80
F-0.1252334085114689
aF0.1252334085114689
aF-0.3678314989981802
aF0.3678314989981802
aF-0.5873179542866175
aF0.5873179542866175
aF-0.7699026741943047
aF0.7699026741943047
aF-0.9041172563704748
aF0.9041172563704749
aF-0.9815606342467192
aF0.9815606342467192
asS'59'
p81
(lp82
F0.0
aF-0.05277348408831
aF0.05277348408831
aF-0.10539987901634414
aF0.10539987901634414
aF-0.15773250558785795
aF0.15773250558785798
aF-0.20962550339203653
aF0.20962550339203653
aF-0.26093423734281174
aF0.26093423734281174
aF-0.3115157008030137
aF0.3115157008030137
aF-0.3612289141697948
aF0.3612289141697948
aF-0.409935317810419
aF0.409935317810419
aF-0.4574991582532667
aF0.4574991582532667
aF-0.503787866557718
aF0.503787866557718
aF-0.5486724278083964
aF0.5486724278083964
aF-0.5920277407040302
aF0.5920277407040302
aF-0.6337329662388501
aF0.6337329662388501
aF-0.6736718645049372
aF0.6736718645049372
aF-0.7117331186771977
aF0.7117331186771977
aF-0.7478106452786403
aF0.7478106452786403
aF-0.7818038898623609
aF0.7818038898623609
aF-0.8136181072882116
aF0.8136181072882116
aF-0.8431646258168722
aF0.8431646258168722
aF-0.8703610942928822
aF0.8703610942928822
aF-0.8951317117434721
aF0.8951317117434721
aF-0.9174074387881552
aF0.9174074387881552
aF-0.9371261903534539
aF0.9371261903534539
aF-0.9542330093769511
aF0.9542330093769511
aF-0.9686802216817816
aF0.9686802216817816
aF-0.9804275739567156
aF0.9804275739567156
aF-0.989442365133731
aF0.989442365133731
aF-0.995699640383246
aF0.995699640383246
aF-0.9991833539092947
aF0.9991833539092947
asS'58'
p83
(lp84
F-0.02684701236594235
aF0.026847012365942356
aF-0.08046363021414273
aF0.08046363021414273
aF-0.13384825059546684
aF0.13384825059546684
aF-0.18684695183576133
aF0.18684695183576133
aF-0.23930692496615344
aF0.23930692496615347
aF-0.29107691431110916
aF0.2910769143111092
aF-0.3420076535979953
aF0.3420076535979953
aF-0.3919522963307531
aF0.3919522963307531
aF-0.44076683918683957
aF0.44076683918683957
aF-0.48831053721671847
aF0.48831053721671847
aF-0.5344463096488475
aF0.5344463096488475
aF-0.579041135130225
aF0.579041135130225
aF-0.6219664352630792
aF0.6219664352630792
aF-0.6630984453321253
aF0.6630984453321253
aF-0.7023185711539081
aF0.7023185711539082
aF-0.7395137310200423
aF0.7395137310200423
aF-0.7745766817496528
aF0.7745766817496528
aF-0.8074063279130882
aF0.8074063279130882
aF-0.8379080133393733
aF0.8379080133393734
aF-0.8659937940748075
aF0.8659937940748075
aF-0.8915826920220302
aF0.8915826920220302
aF-0.9146009285643525
aF0.9146009285643525
aF-0.9349821375882593
aF0.9349821375882593
aF-0.9526675575188691
aF0.9526675575188691
aF-0.9676062025029241
aF0.9676062025029241
aF-0.9797550146943503
aF0.9797550146943503
aF-0.9890790082484426
aF0.9890790082484426
aF-0.9955514765972909
aF0.9955514765972909
aF-0.9991552004073866
aF0.9991552004073866
asS'11'
p85
(lp86
F0.0
aF-0.26954315595234496
aF0.26954315595234496
aF-0.5190961292068118
aF0.5190961292068118
aF-0.7301520055740494
aF0.7301520055740494
aF-0.8870625997680953
aF0.8870625997680953
aF-0.978228658146057
aF0.978228658146057
asS'10'
p87
(lp88
F-0.14887433898163122
aF0.14887433898163122
aF-0.4333953941292472
aF0.4333953941292472
aF-0.6794095682990244
aF0.6794095682990244
aF-0.8650633666889845
aF0.8650633666889845
aF-0.9739065285171717
aF0.9739065285171717
asS'39'
p89
(lp90
F0.0
aF-0.07944380460875547
aF0.07944380460875548
aF-0.1583853399978378
aF0.1583853399978378
aF-0.23632551246183575
aF0.23632551246183578
aF-0.3127715592481859
aF0.31277155924818595
aF-0.38724016397156147
aF0.38724016397156147
aF-0.45926051230913606
aF0.45926051230913606
aF-0.5283772686604374
aF0.5283772686604374
aF-0.594153454957278
aF0.594153454957278
aF-0.656173213432011
aF0.656173213432011
aF-0.7140444358945347
aF0.7140444358945347
aF-0.7674012429310635
aF0.7674012429310635
aF-0.8159062974301431
aF0.8159062974301431
aF-0.8592529379999061
aF0.8592529379999062
aF-0.8971671192929929
aF0.8971671192929929
aF-0.9294091484867382
aF0.9294091484867383
aF-0.9557752123246522
aF0.9557752123246522
aF-0.9760987093334711
aF0.9760987093334711
aF-0.990251536854686
aF0.990251536854686
aF-0.9981473830664329
aF0.9981473830664329
asS'38'
p91
(lp92
F-0.04078514790457823
aF0.04078514790457824
aF-0.12208402533786741
aF0.12208402533786741
aF-0.2025704538921167
aF0.2025704538921167
aF-0.28170880979016527
aF0.28170880979016527
aF-0.358972440479435
aF0.358972440479435
aF-0.4338471694323765
aF0.4338471694323765
aF-0.5058347179279311
aF0.5058347179279311
aF-0.5744560210478071
aF0.5744560210478071
aF-0.6392544158296817
aF0.6392544158296817
aF-0.6997986803791844
aF0.6997986803791844
aF-0.7556859037539707
aF0.7556859037539707
aF-0.8065441676053168
aF0.8065441676053168
aF-0.8520350219323621
aF0.8520350219323621
aF-0.8918557390046322
aF0.8918557390046322
aF-0.9257413320485844
aF0.9257413320485844
aF-0.9534663309335296
aF0.9534663309335296
aF-0.9748463285901535
aF0.9748463285901535
aF-0.9897394542663855
aF0.9897394542663855
aF-0.9980499305356876
aF0.9980499305356876
asS'15'
p93
(lp94
F0.0
aF-0.20119409399743451
aF0.20119409399743451
aF-0.3941513470775634
aF0.3941513470775634
aF-0.5709721726085388
aF0.5709721726085388
aF-0.7244177313601701
aF0.7244177313601701
aF-0.8482065834104272
aF0.8482065834104272
aF-0.937273392400706
aF0.937273392400706
aF-0.9879925180204854
aF0.9879925180204854
asS'14'
p95
(lp96
F-0.10805494870734365
aF0.10805494870734367
aF-0.31911236892788974
aF0.31911236892788974
aF-0.5152486363581541
aF0.5152486363581541
aF-0.6872929048116855
aF0.6872929048116855
aF-0.827201315069765
aF0.827201315069765
aF-0.9284348836635735
aF0.9284348836635735
aF-0.9862838086968123
aF0.9862838086968123
asS'17'
p97
(lp98
F0.0
aF-0.17848418149584785
aF0.17848418149584785
aF-0.3512317634538763
aF0.3512317634538763
aF-0.5126905370864769
aF0.5126905370864769
aF-0.6576711592166907
aF0.6576711592166907
aF-0.7815140038968014
aF0.7815140038968014
aF-0.8802391537269859
aF0.8802391537269859
aF-0.9506755217687678
aF0.9506755217687678
aF-0.9905754753144174
aF0.9905754753144174
asS'16'
p99
(lp100
F-0.09501250983763744
aF0.09501250983763744
aF-0.2816035507792589
aF0.2816035507792589
aF-0.45801677765722737
aF0.45801677765722737
aF-0.6178762444026438
aF0.6178762444026438
aF-0.755404408355003
aF0.755404408355003
aF-0.8656312023878318
aF0.8656312023878318
aF-0.9445750230732326
aF0.9445750230732326
aF-0.9894009349916499
aF0.9894009349916499
asS'19'
p101
(lp102
F0.0
aF-0.16035864564022537
aF0.16035864564022537
aF-0.31656409996362983
aF0.31656409996362983
aF-0.46457074137596094
aF0.46457074137596094
aF-0.600545304661681
aF0.600545304661681
aF-0.7209661773352294
aF0.7209661773352294
aF-0.8227146565371428
aF0.8227146565371428
aF-0.9031559036148179
aF0.9031559036148179
aF-0.96020815213483
aF0.96020815213483
aF-0.9924068438435844
aF0.9924068438435844
asS'32'
p103
(lp104
F-0.04830766568773831
aF0.04830766568773832
aF-0.1444719615827965
aF0.1444719615827965
aF-0.23928736225213706
aF0.23928736225213706
aF-0.33186860228212767
aF0.33186860228212767
aF-0.42135127613063533
aF0.42135127613063533
aF-0.5068999089322294
aF0.5068999089322294
aF-0.5877157572407623
aF0.5877157572407623
aF-0.6630442669302152
aF0.6630442669302152
aF-0.7321821187402897
aF0.7321821187402897
aF-0.7944837959679424
aF0.7944837959679424
aF-0.84936761373257
aF0.84936761373257
aF-0.8963211557660521
aF0.8963211557660521
aF-0.9349060759377397
aF0.9349060759377397
aF-0.9647622555875064
aF0.9647622555875064
aF-0.9856115115452684
aF0.9856115115452684
aF-0.9972638618494816
aF0.9972638618494816
asS'31'
p105
(lp106
F0.0
aF-0.09955531215234152
aF0.09955531215234152
aF-0.19812119933557062
aF0.19812119933557062
aF-0.29471806998170164
aF0.29471806998170164
aF-0.38838590160823294
aF0.38838590160823294
aF-0.4781937820449025
aF0.4781937820449025
aF-0.5632491614071493
aF0.5632491614071493
aF-0.6427067229242603
aF0.6427067229242603
aF-0.7157767845868532
aF0.7157767845868532
aF-0.7817331484166249
aF0.7817331484166249
aF-0.8399203201462674
aF0.8399203201462674
aF-0.8897600299482711
aF0.8897600299482711
aF-0.9307569978966481
aF0.9307569978966481
aF-0.9625039250929497
aF0.9625039250929497
aF-0.9846859096651525
aF0.9846859096651525
aF-0.997087481819477
aF0.997087481819477
asS'30'
p107
(lp108
F-0.05147184255531769
aF0.0514718425553177
aF-0.15386991360858354
aF0.15386991360858354
aF-0.25463692616788985
aF0.25463692616788985
aF-0.3527047255308781
aF0.3527047255308781
aF-0.44703376953808915
aF0.44703376953808915
aF-0.5366241481420199
aF0.5366241481420199
aF-0.6205261829892429
aF0.6205261829892429
aF-0.6978504947933158
aF0.6978504947933158
aF-0.7677774321048262
aF0.7677774321048262
aF-0.8295657623827684
aF0.8295657623827684
aF-0.8825605357920526
aF0.8825605357920527
aF-0.9262000474292743
aF0.9262000474292743
aF-0.9600218649683075
aF0.9600218649683075
aF-0.9836681232797472
aF0.9836681232797472
aF-0.9968934840746495
aF0.9968934840746495
asS'37'
p109
(lp110
F0.0
aF-0.0836704089547699
aF0.0836704089547699
aF-0.16675393023985197
aF0.16675393023985197
aF-0.24866779279136575
aF0.24866779279136575
aF-0.328837429883707
aF0.328837429883707
aF-0.40670050931832613
aF0.40670050931832613
aF-0.48171087780320554
aF0.48171087780320554
aF-0.5533423918615817
aF0.5533423918615817
aF-0.6210926084089244
aF0.6210926084089244
aF-0.6844863091309593
aF0.6844863091309593
aF-0.7430788339819653
aF0.7430788339819653
aF-0.7964592005099023
aF0.7964592005099023
aF-0.844252987340556
aF0.844252987340556
aF-0.8861249621554861
aF0.8861249621554861
aF-0.9217814374124638
aF0.9217814374124638
aF-0.9509723432620948
aF0.9509723432620948
aF-0.9734930300564857
aF0.9734930300564858
aF-0.9891859632143192
aF0.9891859632143192
aF-0.9979445824779136
aF0.9979445824779136
asS'36'
p111
(lp112
F-0.0430181984737086
aF0.04301819847370861
aF-0.12873610380938477
aF0.1287361038093848
aF-0.21350089231686556
aF0.2135008923168656
aF-0.29668499534402826
aF0.29668499534402826
aF-0.37767254711968923
aF0.37767254711968923
aF-0.45586394443342027
aF0.45586394443342027
aF-0.5306802859262452
aF0.5306802859262452
aF-0.6015676581359806
aF0.6015676581359806
aF-0.668001236585521
aF0.668001236585521
aF-0.7294891715935565
aF0.7294891715935565
aF-0.7855762301322066
aF0.7855762301322066
aF-0.8358471669924753
aF0.8358471669924753
aF-0.8799298008903972
aF0.8799298008903972
aF-0.9174977745156591
aF0.9174977745156591
aF-0.9482729843995076
aF0.9482729843995076
aF-0.972027691049698
aF0.972027691049698
aF-0.9885864789022122
aF0.9885864789022122
aF-0.9978304624840858
aF0.9978304624840858
asS'35'
p113
(lp114
F0.0
aF-0.08837134327565926
aF0.08837134327565926
aF-0.17605106116598956
aF0.17605106116598956
aF-0.26235294120929603
aF0.26235294120929603
aF-0.3466015544308139
aF0.3466015544308139
aF-0.42813754151781425
aF0.42813754151781425
aF-0.5063227732414886
aF0.5063227732414887
aF-0.5805453447497645
aF0.5805453447497645
aF-0.6502243646658904
aF0.6502243646658904
aF-0.7148145015566287
aF0.7148145015566287
aF-0.7738102522869126
aF0.7738102522869126
aF-0.8267498990922254
aF0.8267498990922254
aF-0.8732191250252224
aF0.8732191250252224
aF-0.9128542613593176
aF0.9128542613593176
aF-0.9453451482078273
aF0.9453451482078273
aF-0.9704376160392298
aF0.9704376160392298
aF-0.9879357644438514
aF0.9879357644438514
aF-0.9977065690996003
aF0.9977065690996003
asS'34'
p115
(lp116
F-0.04550982195310254
aF0.04550982195310254
aF-0.13615235725918298
aF0.13615235725918298
aF-0.22566669161644948
aF0.22566669161644948
aF-0.3133110813394632
aF0.3133110813394632
aF-0.39835927775864594
aF0.39835927775864594
aF-0.480106545190327
aF0.480106545190327
aF-0.5578755006697467
aF0.5578755006697467
aF-0.6310217270805285
aF0.6310217270805285
aF-0.6989391132162629
aF0.6989391132162629
aF-0.761064876629873
aF0.761064876629873
aF-0.8168842279009336
aF0.8168842279009336
aF-0.8659346383345644
aF0.8659346383345645
aF-0.9078096777183244
aF0.9078096777183244
aF-0.9421623974051071
aF0.9421623974051071
aF-0.9687082625333443
aF0.9687082625333443
aF-0.9872278164063095
aF0.9872278164063095
aF-0.997571753790842
aF0.997571753790842
asS'33'
p117
(lp118
F0.0
aF-0.09363106585473338
aF0.09363106585473338
aF-0.18643929882799157
aF0.18643929882799157
aF-0.27760909715249704
aF0.27760909715249704
aF-0.36633925774807335
aF0.36633925774807335
aF-0.45185001727245067
aF0.4518500172724507
aF-0.5333899047863476
aF0.5333899047863476
aF-0.610242345836379
aF0.610242345836379
aF-0.6817319599697428
aF0.6817319599697428
aF-0.7472304964495622
aF0.7472304964495622
aF-0.8061623562741665
aF0.8061623562741665
aF-0.8580096526765041
aF0.8580096526765041
aF-0.9023167677434336
aF0.9023167677434336
aF-0.9386943726111684
aF0.9386943726111684
aF-0.9668229096899927
aF0.9668229096899927
aF-0.9864557262306425
aF0.9864557262306425
aF-0.9974246942464552
aF0.9974246942464552
asS'55'
p119
(lp120
F0.0
aF-0.05657275381833677
aF0.05657275381833678
aF-0.11296428805932926
aF0.11296428805932926
aF-0.1689939636468732
aF0.16899396364687322
aF-0.22448230064784547
aF0.2244823006478455
aF-0.2792515532008065
aF0.2792515532008065
aF-0.3331262788900239
aF0.3331262788900239
aF-0.38593390074097944
aF0.38593390074097944
aF-0.4375052600371746
aF0.4375052600371746
aF-0.4876751581874741
aF0.4876751581874741
aF-0.5362828859083433
aF0.5362828859083433
aF-0.5831727380260321
aF0.5831727380260321
aF-0.6281945122499282
aF0.6281945122499282
aF-0.6712039903198264
aF0.6712039903198264
aF-0.7120633999866378
aF0.7120633999866378
aF-0.7506418563480219
aF0.7506418563480219
aF-0.7868157811276224
aF0.7868157811276224
aF-0.8204692985593209
aF0.8204692985593209
aF-0.8514946066171545
aF0.8514946066171545
aF-0.8797923224198955
aF0.8797923224198955
aF-0.905271800744
aF0.905271800744
aF-0.9278514247207917
aF0.9278514247207917
aF-0.9474588680412107
aF0.9474588680412107
aF-0.9640313285931352
aF0.9640313285931352
aF-0.9775157355039892
aF0.9775157355039892
aF-0.9878689411988892
aF0.9878689411988892
aF-0.9950579778474119
aF0.9950579778474119
aF-0.9990614195648185
aF0.9990614195648185
asS'18'
p121
(lp122
F-0.0847750130417353
aF0.0847750130417353
aF-0.2518862256915055
aF0.2518862256915055
aF-0.41175116146284263
aF0.41175116146284263
aF-0.5597708310739475
aF0.5597708310739475
aF-0.6916870430603532
aF0.6916870430603532
aF-0.8037049589725231
aF0.8037049589725231
aF-0.8926024664975557
aF0.8926024664975557
aF-0.9558239495713977
aF0.9558239495713977
aF-0.9915651684209309
aF0.9915651684209309
asS'57'
p123
(lp124
F0.0
aF-0.05460715100164682
aF0.05460715100164682
aF-0.1090513328087878
aF0.1090513328087878
aF-0.16317006259126424
aF0.16317006259126426
aF-0.21680182879612403
aF0.21680182879612403
aF-0.26978657316183874
aF0.26978657316183874
aF-0.3219661683953786
aF0.3219661683953786
aF-0.37318489008659445
aF0.37318489008659445
aF-0.42328988145156393
aF0.42328988145156393
aF-0.4721316095179757
aF0.4721316095179757
aF-0.5195643113911876
aF0.5195643113911876
aF-0.5654464292692367
aF0.5654464292692367
aF-0.6096410329087154
aF0.6096410329087154
aF-0.6520162282809769
aF0.6520162282809769
aF-0.6924455511995178
aF0.6924455511995178
aF-0.7308083447445233
aF0.7308083447445233
aF-0.7669901193594502
aF0.7669901193594502
aF-0.8008828945472183
aF0.8008828945472183
aF-0.8323855211504391
aF0.8323855211504391
aF-0.8614039832620469
aF0.8614039832620469
aF-0.8878516788822213
aF0.8878516788822213
aF-0.9116496785213912
aF0.9116496785213912
aF-0.9327269610671017
aF0.9327269610671017
aF-0.9510206264478768
aF0.9510206264478768
aF-0.9664760851718867
aF0.9664760851718867
aF-0.9790472267094688
aF0.9790472267094688
aF-0.988696577650222
aF0.988696577650222
aF-0.9953955236784303
aF0.9953955236784303
aF-0.9991255656252629
aF0.9991255656252629
asS'50'
p125
(lp126
F-0.03109833832718887
aF0.031098338327188876
aF-0.09317470156008614
aF0.09317470156008614
aF-0.1548905899981459
aF0.1548905899981459
aF-0.21600723687604176
aF0.21600723687604176
aF-0.276288193779532
aF0.276288193779532
aF-0.33550024541943735
aF0.33550024541943735
aF-0.3934143118975651
aF0.39341431189756515
aF-0.44980633497403877
aF0.44980633497403877
aF-0.5044581449074642
aF0.5044581449074642
aF-0.5571583045146501
aF0.5571583045146501
aF-0.6077029271849502
aF0.6077029271849502
aF-0.6558964656854394
aF0.6558964656854394
aF-0.7015524687068222
aF0.7015524687068222
aF-0.7444943022260685
aF0.7444943022260685
aF-0.7845558329003992
aF0.7845558329003992
aF-0.821582070859336
aF0.821582070859336
aF-0.8554297694299461
aF0.8554297694299461
aF-0.8859679795236131
aF0.8859679795236131
aF-0.9130785566557919
aF0.9130785566557919
aF-0.936656618944878
aF0.936656618944878
aF-0.9566109552428079
aF0.9566109552428079
aF-0.972864385106692
aF0.972864385106692
aF-0.9853540840480058
aF0.9853540840480058
aF-0.9940319694320907
aF0.9940319694320907
aF-0.998866404420071
aF0.998866404420071
as.